cnumpy.core.multiarray
_reconstruct
p1
(cnumpy
ndarray
p2
(I0
tS'b'
tRp3
(I1
(I4
I3
tcnumpy
dtype
p4
(S'f8'
I0
I1
tRp5
(I3
S'<'
NNNI-1
I-1
I0
tbI00
S'T;h\xfd\x06L\xf2\xbf\xaf\x12\xfas\x92\xde\x01@\xdc\xe9\x8b\xea\x1dq\xf1\xbfJMR\x02f\x93\xf8\xbf\x1c\xab\x12\xfcTH\xe3\xbfu\xd1-@\xc8\x1b\x01@7\xc4\x06?Rz\xe6?\xdb\xe8\x03\xad\xb3Y\xf3\xbf\x94\r\x01\x1b\x159\xe0?6\x99\x1c\x01\x99\x12\xe6\xbfn\xbe\x1f\x1e\xa7\x91\xb1?p\xa1X\x1dd\xe0\xe3?'
tb.(lp1
I4492
aI23200
aI23732
aI134286
aI34136
aI85340
aI12313
aI36352
aI59091
aI19131
aI11366
aI7689
aI15139
aI22655
aI11255
aI7518
aI3034
aI1197
aI7271
aI2973
aI1807
aI4921
aI3689
aI9148
aI5946
aI2984
aI2282
aI3800
aI2366
aI3404
aI1432
aI4496
aI3830
aI1694
aI2003
aI3475
aI2655
aI3092
aI3513
aI1165
aI875
aI3627
aI1869
aI1123
aI2059
aI1266
aI3223
aI1188
aI2153
aI1659
aI1834
aI1937
aI1339
aI2647
aI780
aI1243
aI560
aI1495
aI1102
aI2036
aI652
aI603
aI1751
aI938
aI1024
aI953
aI1363
aI1419
aI1108
aI710
aI1139
aI1997
aI1434
aI1000
aI870
aI1327
aI1086
aI1934
aI575
aI1362
aI1080
aI555
aI1683
aI707
aI1264
aI1159
aI967
aI2044
aI1683
aI786
aI1271
aI1492
aI898
aI1250
aI1704
aI1236
aI669
aI2704
aI921
aI847
aI711
aI2483
aI1142
aI1553
aI816
aI725
aI853
aI1271
aI993
aI605
aI775
aI786
aI894
aI670
aI846
aI1548
aI642
aI807
aI1635
aI760
aI697
aI467
aI565
aI1663
aI503
aI1508
aI770
aI537
aI986
aI413
aI549
aI583
aI696
aI1592
aI396
aI810
aI672
aI1334
aI644
aI588
aI547
aI874
aI952
aI1217
aI705
aI1127
aI741
aI767
aI1096
aI859
aI1033
aI654
aI1014
aI814
aI508
aI1410
aI884
aI1650
aI933
aI773
aI452
aI492
aI555
aI779
aI992
aI630
aI1028
aI457
aI574
aI513
aI781
aI1339
aI885
aI332
aI730
aI395
aI967
aI865
aI1190
aI1291
aI580
aI1021
aI1548
aI772
aI708
aI915
aI1263
aI527
aI441
aI554
aI974
aI390
aI1042
aI1263
aI775
aI598
aI1243
aI756
aI1043
aI676
aI682
aI854
aI858
aI629
aI392
aI1136
aI1018
aI1103
aI545
aI442
aI580
aI1128
aI851
aI616
aI776
aI851
aI545
aI401
aI504
aI896
aI949
aI1498
aI554
aI1008
aI747
aI953
aI659
aI703
aI528
aI480
aI777
aI669
aI590
aI657
aI1097
aI802
aI569
aI645
aI1013
aI874
aI814
aI1143
aI575
aI808
aI575
aI376
aI549
aI521
aI552
aI1031
aI779
aI431
aI508
aI812
aI1148
aI970
aI603
aI421
aI565
aI631
aI928
aI393
aI506
aI654
aI467
aI786
aI400
aI902
aI369
aI530
aI452
aI556
aI567
aI565
aI714
aI505
aI846
aI647
aI819
aI717
aI1065
aI408
aI534
aI552
aI660
aI684
aI421
aI615
aI551
aI512
aI615
aI999
aI585
aI675
aI325
aI726
aI961
aI942
aI517
aI553
aI632
aI540
aI572
aI764
aI647
aI557
aI604
aI399
aI521
aI587
aI711
aI657
aI437
aI1070
aI561
aI848
aI555
aI564
aI404
aI675
aI646
aI489
aI505
aI953
aI473
aI792
aI657
aI366
aI957
aI854
aI685
aI745
aI381
aI384
aI679
aI830
aI755
aI635
aI769
aI1094
aI542
aI456
aI923
aI686
aI422
aI335
aI580
aI664
aI564
aI573
aI660
aI554
aI535
aI650
aI589
aI878
aI798
aI610
aI568
aI646
aI1080
aI490
aI521
aI659
aI753
aI991
aI567
aI965
aI550
aI493
aI393
aI497
aI524
aI488
aI394
aI508
aI668
aI601
aI497
aI404
aI702
aI313
aI584
aI672
aI445
aI387
aI546
aI670
aI356
aI702
aI814
aI813
aI511
aI730
aI728
aI660
aI806
aI880
aI682
aI448
aI565
aI592
aI518
aI424
aI626
aI594
aI730
aI487
aI802
aI742
aI433
aI616
aI620
aI752
aI571
aI771
aI469
aI363
aI503
aI417
aI332
aI685
aI568
aI644
aI581
aI426
aI473
aI559
aI509
aI470
aI781
aI456
aI522
aI482
aI428
aI735
aI653
aI637
aI575
aI659
aI662
aI449
aI671
aI282
aI1280
aI405
aI692
aI473
aI447
aI921
aI751
aI408
aI602
aI488
aI733
aI474
aI431
aI556
aI802
aI481
aI461
aI517
aI700
aI743
aI365
aI682
aI401
aI896
aI365
aI471
aI574
aI481
aI685
aI432
aI1016
aI523
aI570
aI653
aI477
aI508
aI711
aI257
aI324
aI662
aI791
aI466
aI614
aI512
aI822
aI485
aI618
aI588
aI563
aI938
aI1039
aI346
aI320
aI882
aI412
aI266
aI557
aI624
aI411
aI330
aI369
aI666
aI596
aI742
aI407
aI544
aI318
aI476
aI635
aI289
aI544
aI286
aI529
aI529
aI410
aI421
aI572
aI702
aI544
aI613
aI662
aI591
aI543
aI862
aI546
aI636
aI543
aI496
aI676
aI687
aI421
aI795
aI924
aI456
aI269
aI355
aI650
aI514
aI519
aI454
aI551
aI948
aI439
aI251
aI544
aI691
aI622
aI421
aI443
aI592
aI719
aI499
aI435
aI465
aI655
aI587
aI658
aI459
aI672
aI631
aI533
aI565
aI564
aI359
aI498
aI579
aI458
aI471
aI796
aI558
aI640
aI661
aI644
aI403
aI414
aI542
aI605
aI684
aI532
aI623
aI658
aI646
aI339
aI369
aI701
aI545
aI726
aI661
aI716
aI693
aI316
aI348
aI356
aI348
aI568
aI384
aI470
aI629
aI554
aI716
aI399
aI346
aI653
aI404
aI395
aI491
aI637
aI399
aI523
aI509
aI534
aI637
aI565
aI459
aI411
aI704
aI540
aI413
aI429
aI443
aI415
aI653
aI409
aI487
aI474
aI505
aI422
aI771
aI768
aI341
aI578
aI616
aI419
aI389
aI660
aI636
aI420
aI538
aI503
aI715
aI458
aI472
aI363
aI527
aI464
aI336
aI469
aI346
aI409
aI552
aI336
aI434
aI457
aI790
aI506
aI595
aI345
aI797
aI578
aI391
aI740
aI555
aI675
aI750
aI429
aI611
aI317
aI399
aI358
aI397
aI549
aI353
aI328
aI402
aI678
aI394
aI540
aI474
aI652
aI506
aI551
aI407
aI801
aI468
aI947
aI399
aI459
aI554
aI953
aI595
aI492
aI445
aI341
aI891
aI355
aI409
aI403
aI476
aI749
aI550
aI334
aI409
aI341
aI440
aI303
aI378
aI423
aI507
aI639
aI514
aI876
aI418
aI553
aI481
aI453
aI717
aI480
aI631
aI474
aI744
aI401
aI621
aI451
aI501
aI334
aI471
aI269
aI287
aI565
aI622
aI478
aI337
aI483
aI552
aI410
aI768
aI378
aI703
aI248
aI776
aI587
aI551
aI597
aI751
aI374
aI394
aI487
aI734
aI380
aI419
aI648
aI863
aI409
aI357
aI525
aI520
aI633
aI406
aI331
aI623
aI438
aI427
aI447
aI788
aI486
aI483
aI476
aI563
aI676
aI471
aI624
aI448
aI452
aI563
aI677
aI403
aI435
aI571
aI507
aI715
aI446
aI582
aI825
aI491
aI384
aI511
aI456
aI558
aI440
aI585
aI643
aI658
aI769
aI667
aI404
aI349
aI426
aI436
aI437
aI590
aI674
aI555
aI588
aI494
aI633
aI603
aI476
aI236
aI490
aI718
aI448
aI328
aI506
aI525
aI383
aI546
aI337
aI346
aI394
aI344
aI404
aI460
aI384
aI567
aI442
aI617
aI550
aI559
aI553
aI727
aI393
aI398
aI447
aI451
aI329
aI610
aI677
aI302
aI320
aI314
aI516
aI475
aI401
aI505
aI610
aI399
aI479
aI445
aI607
aI351
aI673
aI569
aI341
aI326
aI249
aI573
aI532
aI385
aI493
aI453
aI401
aI332
aI483
aI577
aI513
aI661
aI400
aI240
aI326
aI605
aI510
aI449
aI315
aI384
aI648
aI444
aI740
aI397
aI615
aI579
aI599
aI257
aI710
aI545
aI406
aI416
aI465
aI485
aI485
aI704
aI360
aI403
aI451
aI520
aI431
aI588
aI254
aI656
aI319
aI826
aI655
aI415
aI547
aI676
aI346
aI433
aI368
aI543
aI359
aI615
aI493
aI573
aI373
aI678
aI495
aI532
aI407
aI344
aI411
aI397
aI583
aI747
aI424
aI533
aI659
aI407
aI450
aI571
aI618
aI246
aI522
aI576
aI674
aI327
aI377
aI397
aI326
aI520
aI338
aI582
aI341
aI246
aI810
aI601
aI478
aI486
aI425
aI511
aI641
aI565
aI311
aI551
aI335
aI351
aI389
aI358
aI331
aI496
aI419
aI387
aI323
aI659
aI517
aI435
aI577
aI381
aI335
aI437
aI382
aI758
aI421
aI305
aI396
aI480
aI226
aI453
aI264
aI394
aI291
aI392
aI512
aI631
aI413
aI441
aI501
aI639
aI454
aI738
aI444
aI394
aI247
aI702
aI471
aI494
aI402
aI330
aI660
aI311
a.(lp1
I10001
aI10001
aI10001
aI10001
aI10001
aI119
aI10001
aI120
aI10001
aI10001
aI10001
aI117
aI10001
aI10001
aI121
aI10001
aI122
aI117
aI122
aI116
aI127
aI126
aI125
aI117
aI133
aI115
aI10001
aI10001
aI134
aI115
aI123
aI123
aI122
aI124
aI114
aI122
aI123
aI116
aI123
aI124
aI123
aI116
aI154
aI123
aI115
aI123
aI113
aI114
aI119
aI116
aI124
aI113
aI123
aI118
aI124
aI123
aI120
aI156
aI103
aI154
aI114
aI169
aI172
aI156
aI123
aI122
aI120
aI122
aI123
aI159
aI157
aI158
aI160
aI156
aI158
aI156
aI88
aI156
aI164
aI154
aI155
aI154
aI155
aI155
aI159
aI171
aI181
aI91
aI157
aI173
aI167
aI159
aI163
aI158
aI171
aI92
aI157
aI94
aI158
aI158
a.