cnumpy.core.multiarray
_reconstruct
p1
(cnumpy
ndarray
p2
(I0
tS'b'
tRp3
(I1
(I2
I3
tcnumpy
dtype
p4
(S'f8'
I0
I1
tRp5
(I3
S'<'
NNNI-1
I-1
I0
tbI00
S'\x06\x91\xf9\xf4\xef\x8a\xd6?(\xa3\xf8\\W,u\xbf>\xae\x85\x97>6\xd6\xbfQ\xfaW\x17\xd2\xd7\xfe\xbf\xf5\xbe\\\x0f\x11\x94\xdd\xbf\x17\x95\x97-k\x1e\x03@'
tb.(lp1
I76237
aI6591
aI17746
aI2097
aI29046
aI35065
aI20230
aI16264
aI38141
aI2611
aI11107
aI7489
aI9838
aI860
aI8550
aI2471
aI17360
aI2871
aI2709
aI1511
aI6253
aI856
aI2791
aI1900
aI4890
aI2898
aI6322
aI3130
aI2866
aI2259
aI2313
aI1010
aI2284
aI2236
aI1432
aI1600
aI8034
aI2233
aI3844
aI1296
aI1069
aI3028
aI3566
aI1734
aI3275
aI2557
aI1602
aI2921
aI2161
aI972
aI1442
aI1704
aI2782
aI1336
aI2372
aI1155
aI1350
aI591
aI1746
aI672
aI973
aI1486
aI1360
aI1700
aI1701
aI1185
aI2127
aI1302
aI1667
aI815
aI754
aI2047
aI1224
aI1817
aI576
aI729
aI1076
aI2336
aI984
aI2004
aI1463
aI1707
aI941
aI1065
aI793
aI1522
aI1610
aI1651
aI1582
aI1327
aI909
aI904
aI974
aI697
aI899
aI1825
aI1428
aI1104
aI716
aI843
aI678
aI1299
aI767
aI786
aI993
aI657
aI3082
aI1063
aI2109
aI1290
aI829
aI1071
aI700
aI495
aI1628
aI740
aI433
aI1030
aI531
aI810
aI1055
aI1111
aI675
aI1417
aI1204
aI828
aI1048
aI472
aI729
aI1240
aI859
aI698
aI855
aI708
aI530
aI1251
aI589
aI930
aI1317
aI1022
aI1072
aI723
aI716
aI684
aI599
aI636
aI990
aI1351
aI787
aI491
aI685
aI1161
aI1078
aI499
aI780
aI701
aI681
aI789
aI1225
aI401
aI1229
aI1583
aI1115
aI580
aI662
aI897
aI772
aI694
aI658
aI834
aI674
aI827
aI1253
aI768
aI641
aI599
aI881
aI967
aI1106
aI923
aI1424
aI754
aI738
aI617
aI549
aI904
aI434
aI1142
aI1086
aI731
aI543
aI905
aI672
aI919
aI729
aI790
aI486
aI844
aI1093
aI617
aI636
aI800
aI940
aI1053
aI460
aI440
aI616
aI838
aI649
aI595
aI789
aI853
aI516
aI972
aI524
aI563
aI441
aI890
aI442
aI534
aI1258
aI818
aI690
aI1004
aI1112
aI1167
aI647
aI693
aI648
aI754
aI926
aI1030
aI511
aI1422
aI900
aI790
aI728
aI651
aI944
aI550
aI729
aI560
aI871
aI504
aI570
aI555
aI858
aI432
aI744
aI909
aI746
aI496
aI971
aI925
aI483
aI957
aI499
aI558
aI637
aI610
aI797
aI329
aI849
aI314
aI724
aI639
aI763
aI961
aI738
aI653
aI479
aI440
aI532
aI786
aI426
aI443
aI739
aI490
aI880
aI792
aI742
aI1049
aI554
aI859
aI679
aI637
aI639
aI964
aI582
aI813
aI753
aI717
aI931
aI478
aI739
aI613
aI485
aI984
aI453
aI595
aI373
aI672
aI678
aI884
aI448
aI475
aI1177
aI476
aI837
aI650
aI638
aI737
aI656
aI1194
aI639
aI478
aI441
aI501
aI882
aI412
aI585
aI828
aI984
aI588
aI406
aI503
aI850
aI570
aI559
aI864
aI649
aI447
aI548
aI902
aI648
aI396
aI872
aI780
aI953
aI596
aI983
aI430
aI657
aI1081
aI540
aI780
aI720
aI480
aI666
aI745
aI383
aI1053
aI545
aI569
aI665
aI499
aI480
aI750
aI357
aI664
aI420
aI635
aI467
aI446
aI637
aI899
aI601
aI506
aI921
aI885
aI396
aI423
aI338
aI584
aI528
aI513
aI976
aI833
aI593
aI696
aI555
aI413
aI741
aI900
aI999
aI979
aI553
aI545
aI429
aI448
aI636
aI1050
aI549
aI723
aI414
aI662
aI626
aI455
aI750
aI1121
aI714
aI508
aI601
aI605
aI821
aI934
aI911
aI989
aI467
aI447
aI476
aI618
aI829
aI667
aI864
aI639
aI701
aI852
aI425
aI698
aI557
aI607
aI576
aI516
aI326
aI537
aI582
aI692
aI560
aI960
aI662
aI468
aI799
aI638
aI450
aI585
aI354
aI632
aI1612
aI697
aI568
aI742
aI426
aI474
aI728
aI746
aI896
aI485
aI524
aI524
aI415
aI544
aI577
aI911
aI634
aI629
aI525
aI473
aI614
aI381
aI819
aI547
aI505
aI721
aI466
aI382
aI761
aI595
aI546
aI441
aI824
aI399
aI433
aI641
aI425
aI1290
aI601
aI388
aI632
aI695
aI398
aI418
aI657
aI748
aI730
aI648
aI598
aI540
aI668
aI717
aI417
aI599
aI631
aI601
aI481
aI906
aI699
aI691
aI698
aI706
aI410
aI467
aI612
aI521
aI388
aI555
aI598
aI484
aI722
aI737
aI585
aI439
aI377
aI603
aI488
aI436
aI613
aI759
aI720
aI575
aI542
aI608
aI846
aI778
aI657
aI534
aI499
aI488
aI461
aI762
aI759
aI487
aI655
aI465
aI738
aI457
aI327
aI391
aI578
aI474
aI472
aI599
aI526
aI511
aI556
aI729
aI579
aI648
aI398
aI528
aI527
aI438
aI442
aI488
aI639
aI649
aI638
aI389
aI612
aI424
aI561
aI470
aI246
aI536
aI415
aI486
aI840
aI542
aI557
aI372
aI479
aI600
aI794
aI861
aI365
aI760
aI404
aI657
aI505
aI736
aI484
aI907
aI1119
aI459
aI621
aI486
aI572
aI816
aI680
aI431
aI495
aI600
aI475
aI534
aI666
aI555
aI633
aI581
aI607
aI843
aI496
aI510
aI608
aI532
aI575
aI449
aI687
aI402
aI417
aI633
aI592
aI446
aI439
aI755
aI463
aI289
aI803
aI494
aI388
aI480
aI1041
aI448
aI717
aI559
aI411
aI464
aI887
aI581
aI769
aI811
aI445
aI489
aI335
aI693
aI525
aI421
aI474
aI709
aI521
aI535
aI497
aI480
aI390
aI446
aI797
aI848
aI532
aI565
aI464
aI499
aI368
aI252
aI531
aI766
aI465
aI399
aI731
aI572
aI500
aI333
aI573
aI511
aI606
aI613
aI500
aI865
aI554
aI293
aI736
aI516
aI736
aI489
aI760
aI532
aI597
aI516
aI623
aI364
aI504
aI369
aI336
aI644
aI640
aI526
aI245
aI711
aI357
aI508
aI543
aI505
aI670
aI356
aI481
aI551
aI510
aI369
aI460
aI542
aI566
aI425
aI545
aI314
aI465
aI501
aI639
aI621
aI513
aI592
aI397
aI572
aI435
aI471
aI908
aI581
aI282
aI471
aI689
aI612
aI522
aI403
aI651
aI580
aI861
aI404
aI503
aI584
aI495
aI552
aI389
aI614
aI573
aI451
aI640
aI568
aI527
aI504
aI691
aI403
aI318
aI415
aI501
aI409
aI652
aI515
aI491
aI422
aI560
aI479
aI782
aI340
aI553
aI606
aI456
aI692
aI324
aI556
aI405
aI404
aI363
aI524
aI346
aI738
aI408
aI731
aI425
aI420
aI315
aI397
aI360
aI561
aI578
aI396
aI527
aI439
aI573
aI595
aI690
aI575
aI732
aI586
aI544
aI684
aI580
aI886
aI428
aI483
aI674
aI396
aI726
aI478
aI607
aI617
aI374
aI613
aI405
aI907
aI406
aI402
aI407
aI535
aI529
aI621
aI523
aI368
aI753
aI669
aI766
aI398
aI687
aI345
aI520
aI483
aI397
aI664
aI384
aI413
aI673
aI544
aI649
aI802
aI571
aI387
aI359
aI421
aI498
aI370
aI441
aI467
aI460
aI609
aI614
aI612
aI406
aI476
aI606
aI487
aI426
aI545
aI640
aI478
aI662
aI324
aI460
aI367
aI335
aI548
aI847
aI449
aI627
aI569
aI404
aI963
aI619
aI328
aI445
aI374
aI585
aI328
aI727
aI291
aI397
aI405
aI374
aI411
aI492
aI653
aI758
aI323
aI383
aI504
aI393
aI353
aI499
aI367
aI361
aI590
aI970
aI465
aI549
aI431
aI518
aI468
aI599
aI557
aI429
aI482
aI481
aI490
aI407
aI409
aI396
aI393
aI394
aI399
aI253
aI375
aI373
aI384
aI409
aI538
aI335
aI488
aI308
aI507
aI483
aI814
aI519
aI632
aI714
aI625
aI664
aI577
aI321
aI620
aI393
aI581
aI399
aI550
aI379
aI537
aI632
aI497
aI420
aI407
aI561
aI603
aI479
aI680
aI564
aI486
aI547
aI704
aI362
aI572
aI482
aI472
aI503
aI392
aI322
aI370
aI539
aI758
aI815
aI510
aI327
aI679
aI348
aI658
aI696
aI626
aI636
aI348
aI578
aI371
aI543
aI668
aI537
aI356
aI326
aI854
aI324
aI371
aI907
aI399
aI378
aI517
aI682
aI521
aI522
aI394
aI706
aI648
aI415
aI452
aI612
aI437
aI370
aI452
aI335
aI298
aI728
aI429
aI600
aI470
aI724
aI283
aI625
aI524
aI674
aI330
aI505
aI733
aI334
aI429
aI578
aI397
aI1010
aI623
aI626
aI456
a.(lp1
I10001
aI169
aI203
aI193
aI193
aI10001
aI211
aI172
aI192
aI192
aI192
aI204
aI192
aI195
aI193
aI193
aI121
aI119
aI193
aI10001
aI193
aI118
aI10001
aI119
aI192
aI10001
aI10001
aI191
aI119
aI119
aI10001
aI193
aI119
aI192
aI119
aI191
aI119
aI119
aI119
aI192
aI10001
aI119
aI10001
aI121
aI119
aI10001
aI122
aI119
aI116
aI119
aI10001
aI119
aI10001
aI121
aI115
aI116
aI122
aI121
aI120
aI123
aI119
aI119
aI115
aI119
aI120
aI120
aI119
aI119
aI126
aI117
aI128
aI117
aI10001
aI10001
aI10001
aI10001
aI120
aI115
aI10001
aI131
aI120
aI124
aI10001
aI10001
aI114
aI120
aI10001
aI117
aI116
aI10001
aI117
aI121
aI115
aI121
aI121
aI121
aI116
aI121
aI10001
aI114
a.