cnumpy.core.multiarray
_reconstruct
p1
(cnumpy
ndarray
p2
(I0
tS'b'
tRp3
(I1
(I4
I3
tcnumpy
dtype
p4
(S'f8'
I0
I1
tRp5
(I3
S'<'
NNNI-1
I-1
I0
tbI00
S'\x8b\xde\x7f\xd5\x7fc\xf2\xbf++N\xe7\xd4n\xd7?q\xa7X7\x95\x0f\xe9?\xa9=\xecYdx\x06\xc0eW+a\xa4\xa3\xee\xbfB\x137rM!\x0e@\xb0\x98%\xeb\xdb\xe4\xe0?_*\x87\xe7_\xd8\xc3\xbfO\x9c\x87\xe2\x87\xdd\xd7\xbf~~Fm,\xdf\xe9\xbf\t\x87\xdbQ\x04k\xdf\xbf(!\x1aKW\xca\xf4?'
tb.(lp1
I16936
aI37881
aI30031
aI21718
aI34186
aI22202
aI56627
aI8929
aI30229
aI25266
aI5030
aI9801
aI9646
aI7105
aI1900
aI2240
aI1273
aI1532
aI3225
aI3602
aI1624
aI3845
aI4473
aI3058
aI2326
aI3597
aI6638
aI2525
aI7275
aI2898
aI3265
aI3274
aI3103
aI2099
aI3249
aI1332
aI1285
aI2106
aI3437
aI1796
aI2935
aI2470
aI1299
aI785
aI3676
aI1478
aI2161
aI1689
aI2710
aI1014
aI1814
aI2286
aI3269
aI1665
aI1479
aI2617
aI1641
aI1792
aI653
aI1706
aI2422
aI993
aI3446
aI1065
aI1228
aI992
aI1447
aI1476
aI592
aI785
aI1928
aI1992
aI1636
aI901
aI633
aI1160
aI1711
aI1670
aI664
aI2063
aI720
aI1268
aI1293
aI1749
aI1562
aI1290
aI2444
aI657
aI1711
aI1134
aI815
aI1104
aI2384
aI1022
aI1358
aI1332
aI1559
aI962
aI572
aI818
aI1720
aI822
aI836
aI1430
aI1496
aI1224
aI580
aI2113
aI986
aI1812
aI1118
aI710
aI1016
aI1129
aI1332
aI949
aI596
aI542
aI680
aI842
aI738
aI980
aI845
aI488
aI593
aI683
aI1178
aI763
aI1185
aI1354
aI1272
aI1037
aI967
aI1186
aI1394
aI1207
aI918
aI581
aI1306
aI1177
aI903
aI1322
aI1438
aI491
aI830
aI1245
aI1031
aI1002
aI937
aI958
aI836
aI931
aI678
aI1159
aI1610
aI925
aI915
aI831
aI845
aI1495
aI542
aI925
aI1703
aI815
aI843
aI667
aI1142
aI588
aI1085
aI872
aI1243
aI1209
aI1585
aI1234
aI1057
aI1025
aI725
aI633
aI694
aI720
aI1260
aI736
aI827
aI584
aI876
aI636
aI1192
aI559
aI1243
aI1058
aI767
aI522
aI953
aI785
aI514
aI1109
aI526
aI649
aI599
aI735
aI1242
aI787
aI1116
aI954
aI663
aI1398
aI1144
aI704
aI862
aI1276
aI911
aI950
aI867
aI584
aI1033
aI1244
aI390
aI653
aI1439
aI721
aI864
aI536
aI731
aI925
aI1595
aI855
aI609
aI791
aI1695
aI630
aI753
aI940
aI817
aI624
aI891
aI626
aI623
aI525
aI414
aI391
aI633
aI733
aI855
aI633
aI890
aI1042
aI532
aI879
aI670
aI1099
aI1041
aI776
aI1018
aI662
aI787
aI886
aI866
aI810
aI998
aI719
aI421
aI817
aI525
aI496
aI1181
aI784
aI1075
aI943
aI478
aI995
aI725
aI499
aI648
aI1000
aI839
aI820
aI891
aI746
aI597
aI807
aI806
aI486
aI1331
aI615
aI1352
aI663
aI842
aI874
aI576
aI513
aI487
aI851
aI726
aI528
aI790
aI1197
aI747
aI828
aI878
aI733
aI914
aI689
aI754
aI778
aI473
aI612
aI658
aI617
aI712
aI931
aI619
aI919
aI804
aI453
aI672
aI564
aI885
aI772
aI692
aI672
aI749
aI707
aI1429
aI675
aI746
aI579
aI1112
aI648
aI902
aI888
aI616
aI550
aI592
aI730
aI872
aI848
aI759
aI508
aI736
aI853
aI625
aI315
aI885
aI783
aI943
aI468
aI559
aI948
aI770
aI471
aI453
aI1041
aI749
aI542
aI504
aI775
aI784
aI552
aI758
aI608
aI631
aI521
aI848
aI590
aI711
aI956
aI690
aI1072
aI845
aI394
aI654
aI429
aI1038
aI700
aI791
aI608
aI448
aI945
aI677
aI706
aI726
aI606
aI537
aI755
aI504
aI787
aI669
aI865
aI816
aI622
aI697
aI904
aI779
aI929
aI600
aI1483
aI777
aI427
aI715
aI604
aI496
aI724
aI735
aI826
aI572
aI662
aI427
aI760
aI419
aI533
aI897
aI987
aI612
aI682
aI408
aI787
aI582
aI492
aI497
aI333
aI430
aI793
aI637
aI327
aI594
aI565
aI723
aI625
aI462
aI429
aI959
aI543
aI704
aI684
aI680
aI882
aI771
aI1102
aI666
aI637
aI714
aI810
aI733
aI651
aI568
aI475
aI1119
aI554
aI751
aI731
aI348
aI641
aI855
aI843
aI542
aI689
aI592
aI582
aI440
aI751
aI389
aI649
aI431
aI625
aI769
aI378
aI574
aI940
aI682
aI673
aI496
aI704
aI421
aI425
aI650
aI684
aI938
aI626
aI548
aI628
aI560
aI631
aI864
aI762
aI425
aI424
aI466
aI676
aI515
aI417
aI594
aI563
aI564
aI773
aI698
aI848
aI1368
aI639
aI423
aI540
aI813
aI500
aI493
aI667
aI887
aI915
aI719
aI706
aI731
aI927
aI514
aI591
aI565
aI824
aI515
aI565
aI834
aI373
aI740
aI560
aI937
aI507
aI473
aI399
aI467
aI844
aI1018
aI530
aI860
aI332
aI581
aI714
aI727
aI374
aI661
aI444
aI394
aI544
aI567
aI793
aI870
aI415
aI685
aI598
aI720
aI775
aI637
aI740
aI1290
aI502
aI428
aI652
aI650
aI614
aI720
aI1048
aI511
aI571
aI478
aI731
aI669
aI920
aI619
aI473
aI750
aI826
aI575
aI681
aI721
aI562
aI456
aI332
aI473
aI455
aI410
aI589
aI503
aI673
aI894
aI721
aI442
aI424
aI537
aI396
aI710
aI240
aI509
aI509
aI978
aI743
aI561
aI530
aI724
aI544
aI731
aI560
aI611
aI471
aI526
aI659
aI550
aI550
aI787
aI1270
aI570
aI571
aI453
aI568
aI579
aI526
aI609
aI409
aI475
aI623
aI966
aI666
aI533
aI653
aI770
aI650
aI433
aI531
aI933
aI514
aI704
aI642
aI537
aI540
aI879
aI644
aI403
aI419
aI802
aI607
aI561
aI559
aI440
aI691
aI426
aI475
aI422
aI449
aI526
aI659
aI521
aI888
aI598
aI806
aI695
aI760
aI503
aI630
aI560
aI328
aI580
aI1009
aI908
aI478
aI566
aI318
aI558
aI430
aI671
aI399
aI803
aI565
aI517
aI596
aI560
aI969
aI507
aI457
aI252
aI958
aI509
aI323
aI525
aI482
aI348
aI876
aI855
aI689
aI716
aI595
aI986
aI508
aI649
aI455
aI725
aI585
aI452
aI453
aI388
aI625
aI405
aI529
aI475
aI433
aI317
aI1075
aI401
aI579
aI916
aI436
aI643
aI638
aI754
aI968
aI657
aI567
aI511
aI692
aI641
aI558
aI526
aI610
aI480
aI553
aI545
aI646
aI413
aI904
aI657
aI696
aI474
aI769
aI634
aI628
aI477
aI898
aI621
aI441
aI564
aI1080
aI476
aI568
aI475
aI679
aI456
aI698
aI595
aI747
aI419
aI553
aI286
aI480
aI946
aI569
aI459
aI429
aI514
aI529
aI513
aI391
aI521
aI487
aI467
aI914
aI511
aI503
aI768
aI599
aI613
aI584
aI375
aI322
aI379
aI480
aI621
aI502
aI452
aI640
aI644
aI352
aI521
aI574
aI412
aI891
aI472
aI531
aI727
aI603
aI410
aI614
aI540
aI509
aI484
aI293
aI540
aI719
aI825
aI1154
aI495
aI716
aI505
aI380
aI555
aI438
aI678
aI770
aI297
aI640
aI495
aI468
aI819
aI326
aI457
aI517
aI714
aI862
aI350
aI935
aI602
aI498
aI418
aI446
aI576
aI970
aI511
aI709
aI667
aI491
aI387
aI403
aI500
aI392
aI396
aI512
aI471
aI891
aI772
aI463
aI460
aI444
aI615
aI728
aI431
aI468
aI746
aI585
aI351
aI629
aI477
aI661
aI571
aI757
aI473
aI602
aI388
aI605
aI830
aI383
aI467
aI525
aI576
aI350
aI692
aI804
aI514
aI449
aI415
aI408
aI692
aI870
aI391
aI465
aI530
aI524
aI601
aI1310
aI684
aI509
aI536
aI565
aI664
aI603
aI426
aI558
aI722
aI407
aI605
aI796
aI588
aI473
aI743
aI731
aI421
aI463
aI628
aI643
aI448
aI406
aI424
aI606
aI656
aI1085
aI454
aI670
aI471
aI317
aI451
aI466
aI376
aI504
aI600
aI494
aI488
aI833
aI435
aI309
aI621
aI680
aI774
aI628
aI583
aI512
aI566
aI912
aI682
aI412
aI332
aI685
aI471
aI430
aI419
aI629
aI513
aI377
aI838
aI628
aI617
aI830
aI404
aI407
aI459
aI753
aI640
aI529
aI545
aI650
aI487
aI497
aI513
aI537
aI627
aI477
aI403
aI937
aI393
aI433
aI593
aI417
aI438
aI647
aI786
aI687
aI628
aI786
aI584
aI422
aI766
aI698
aI343
aI604
aI811
aI588
aI469
aI323
aI486
aI499
aI279
aI915
aI478
aI648
aI560
aI332
aI613
aI361
aI632
aI402
aI373
aI399
aI238
aI628
aI658
aI395
aI534
aI477
aI387
aI481
aI349
aI629
aI547
aI500
aI707
aI370
aI317
aI619
aI641
aI382
aI444
aI350
aI604
aI368
aI448
aI450
aI465
aI246
aI402
aI823
aI614
aI604
aI392
aI673
aI258
aI507
aI648
aI353
aI624
aI288
aI412
aI393
aI315
aI550
aI594
aI473
aI428
aI525
aI387
aI533
aI654
aI698
aI618
aI402
aI386
aI774
aI333
aI358
aI434
aI522
aI494
aI642
aI431
aI366
aI664
aI576
aI385
aI790
aI607
aI500
aI388
aI411
aI327
aI460
aI633
aI414
aI879
aI693
aI471
aI360
aI399
aI398
aI461
aI474
aI552
aI533
aI395
aI372
aI286
aI379
aI465
aI428
aI512
aI567
aI628
aI624
aI450
aI541
aI655
aI336
aI393
aI421
aI757
aI751
aI603
aI412
aI397
aI703
aI379
aI712
aI557
aI421
aI682
aI557
aI685
aI612
aI306
aI442
aI581
aI311
aI482
aI541
aI498
aI444
aI623
aI597
aI409
aI686
aI318
aI917
aI359
aI550
aI726
aI334
aI565
aI563
aI511
aI348
aI479
aI1026
aI389
aI484
aI518
aI485
aI402
aI581
aI495
aI368
aI628
aI607
aI417
aI527
aI412
aI626
aI572
aI622
aI482
aI491
aI951
aI632
aI1159
aI476
aI586
aI367
aI496
aI554
aI526
aI490
aI342
aI514
aI259
aI324
aI471
aI504
aI447
aI1221
aI550
aI753
aI388
aI478
aI365
aI706
aI462
aI395
aI765
aI408
aI420
aI531
aI809
aI419
aI611
aI457
aI1006
aI594
aI396
aI799
aI370
aI461
aI572
aI443
aI436
aI236
aI594
aI392
aI473
aI469
aI485
aI445
aI645
aI459
aI453
aI707
aI500
aI521
aI612
aI592
aI382
aI453
aI497
aI805
aI531
aI365
aI396
aI501
aI498
aI316
aI433
aI789
aI650
aI359
aI557
aI460
aI364
aI634
aI705
aI441
aI286
aI587
aI557
aI476
aI525
aI496
aI387
aI402
aI477
aI550
aI672
aI394
aI489
aI690
aI532
aI826
aI540
aI537
aI528
aI1246
aI519
aI668
aI608
aI809
aI660
aI585
aI372
aI408
aI482
aI648
aI464
aI401
aI624
aI394
aI591
aI635
aI326
aI590
aI317
aI448
aI335
aI328
aI411
aI397
aI521
aI373
aI408
aI390
aI475
aI399
aI399
aI374
aI247
aI609
aI538
aI628
aI468
aI576
aI511
aI459
aI566
aI459
aI464
aI317
aI534
aI415
aI390
aI530
aI522
aI529
aI401
aI511
aI532
aI339
aI315
aI262
aI418
aI361
aI471
aI373
aI463
aI472
aI347
aI261
aI497
aI384
aI322
aI481
aI804
aI350
aI396
aI760
aI413
aI432
aI317
aI345
aI562
aI540
aI241
aI393
aI393
aI574
aI462
aI456
aI345
aI451
aI403
aI503
aI385
aI340
aI541
aI605
aI509
aI597
aI462
aI567
aI428
aI349
aI552
aI393
aI382
aI440
aI407
aI424
aI515
aI544
aI616
aI407
aI405
aI366
aI325
aI400
aI435
aI427
aI595
aI497
aI461
aI333
aI392
aI390
aI658
aI392
aI522
aI776
aI359
aI400
aI706
aI326
aI413
aI539
aI413
aI481
aI400
aI514
aI304
aI376
aI414
aI332
aI568
aI706
aI506
aI410
aI449
aI325
aI328
aI398
aI820
aI511
aI484
aI327
aI384
aI344
aI402
aI535
aI406
aI400
aI696
aI506
aI449
aI615
aI928
aI503
aI607
aI498
aI594
aI345
aI483
aI411
aI414
aI492
aI670
aI482
aI416
aI527
aI366
aI507
aI483
aI487
aI557
aI362
aI322
aI645
aI366
aI401
aI522
aI465
aI454
aI412
aI792
aI553
aI285
aI326
aI397
aI525
aI357
aI509
aI598
aI525
aI481
aI635
aI684
aI315
aI327
aI584
aI891
aI319
aI350
aI635
aI606
aI888
aI644
aI243
aI440
aI317
aI387
aI584
aI450
aI550
aI431
aI541
aI315
aI504
aI351
aI663
aI445
aI348
aI416
aI521
aI440
aI666
aI349
aI567
aI546
aI316
aI407
aI319
aI449
aI298
aI311
aI650
aI532
aI313
aI478
aI362
aI322
aI391
aI392
aI387
aI339
aI447
aI743
aI352
aI502
aI316
aI328
aI589
aI482
aI446
aI514
aI719
aI308
aI349
aI389
aI663
aI587
aI325
aI325
aI691
aI547
aI453
aI444
aI477
aI440
aI623
aI894
aI626
aI476
aI316
aI412
aI429
aI402
aI391
aI420
aI454
aI582
aI402
aI383
aI437
aI361
aI393
aI349
aI529
aI354
aI546
aI468
aI356
aI442
aI314
aI612
aI526
aI548
aI481
aI430
aI554
aI360
aI685
aI332
aI423
aI378
aI483
aI587
aI318
aI399
aI418
aI485
aI412
aI358
aI524
aI321
aI466
aI376
aI485
aI412
aI392
aI345
aI477
aI583
aI351
aI442
aI544
aI350
aI577
aI413
aI699
aI542
aI676
aI322
aI436
aI471
aI305
aI319
aI662
aI406
aI407
aI717
aI483
aI385
aI403
aI320
aI619
aI369
aI404
aI406
aI402
aI672
aI520
aI469
aI1022
aI849
aI464
aI394
aI540
aI496
aI335
aI405
aI373
aI449
aI248
aI375
aI380
aI592
aI244
aI474
aI461
aI375
aI509
aI232
aI470
aI493
aI457
aI395
aI405
aI402
aI379
aI616
aI479
aI481
aI710
aI568
aI507
aI331
aI558
aI545
aI558
aI418
aI252
aI330
aI364
aI495
aI391
aI609
aI388
aI309
aI515
aI411
aI254
aI538
aI394
aI345
aI529
aI573
aI489
aI818
aI479
aI360
aI428
aI595
aI393
aI515
aI369
aI425
aI508
aI420
aI320
aI499
aI491
aI427
aI341
aI545
aI364
aI429
aI630
aI290
aI601
aI306
aI402
aI691
aI446
aI330
aI623
aI541
aI371
aI510
aI711
aI394
aI378
aI364
aI779
aI319
aI472
aI451
aI470
aI397
aI477
aI384
aI255
aI326
aI802
aI506
aI445
aI521
aI784
aI586
aI811
aI419
aI493
aI395
aI330
aI273
aI409
aI375
aI418
aI366
aI429
aI298
aI476
aI513
aI565
aI389
aI552
aI397
aI508
aI702
aI647
aI628
aI435
aI482
aI438
aI433
aI346
aI419
aI514
aI480
aI490
aI463
aI301
aI311
aI419
aI488
aI247
aI421
aI547
aI667
aI312
aI477
aI705
aI398
aI350
aI246
aI322
aI408
aI314
aI503
aI591
aI503
aI345
aI322
aI422
aI665
aI578
aI273
aI581
aI356
aI558
aI455
aI318
aI487
aI576
aI366
aI506
aI580
aI320
aI533
aI431
aI468
aI461
aI376
aI632
aI308
aI550
aI329
aI722
aI316
aI376
aI460
aI411
aI418
aI494
aI406
aI507
aI342
aI314
aI501
aI617
aI396
aI319
aI342
aI394
aI359
aI482
aI400
aI566
aI425
aI652
aI593
aI389
aI513
aI611
aI373
aI449
aI426
aI322
aI466
aI485
aI422
aI449
aI582
aI394
aI648
aI311
aI658
aI485
aI346
aI327
aI280
aI310
aI445
aI417
aI499
aI595
aI585
aI463
aI531
aI485
aI255
aI684
aI240
aI400
aI536
aI485
aI240
aI604
aI541
aI635
aI407
aI409
aI464
aI451
aI444
aI727
aI420
aI430
aI390
aI517
aI451
aI246
aI603
aI371
aI389
aI335
aI294
aI440
aI426
aI596
aI396
aI490
aI372
aI436
aI542
aI321
aI395
aI433
aI318
aI420
aI593
aI355
aI494
aI348
aI453
aI502
aI331
aI336
aI504
aI397
aI392
aI725
aI318
aI595
aI453
aI325
aI409
aI470
aI245
aI514
aI399
aI339
aI329
aI242
aI467
aI494
aI602
aI411
aI511
aI394
aI310
aI238
aI367
aI614
aI451
aI599
aI442
aI401
aI318
aI564
aI408
aI527
aI384
aI624
aI920
aI333
aI321
aI652
aI601
aI618
aI564
aI412
aI348
aI427
aI315
aI249
aI445
aI478
aI405
aI559
aI411
aI367
aI254
aI632
aI554
aI435
aI648
aI605
aI326
aI515
aI411
aI318
aI644
aI474
aI404
aI320
aI564
aI325
aI520
aI407
aI384
aI422
aI709
aI501
aI385
aI500
aI329
aI325
aI422
aI471
aI386
aI502
aI310
aI323
aI853
aI492
aI402
aI414
aI473
aI492
aI245
aI355
aI439
aI498
aI491
aI318
aI385
aI314
aI626
aI440
aI413
aI385
aI340
aI425
aI359
aI421
aI479
aI393
aI807
aI517
aI399
aI521
aI335
aI540
aI391
aI396
aI344
aI308
aI443
aI470
aI552
aI485
aI360
aI846
aI373
aI297
aI675
aI356
aI502
aI532
aI463
aI413
aI335
aI362
aI310
aI434
aI548
aI337
aI352
aI802
aI687
aI842
aI492
aI365
aI336
aI498
aI322
aI376
aI363
aI366
aI435
aI878
aI465
aI247
aI598
aI384
aI242
aI280
aI615
aI352
aI339
aI361
aI472
aI589
aI324
aI458
aI362
aI810
aI496
aI419
aI368
aI381
aI525
aI369
aI509
aI390
aI489
aI303
aI678
aI277
aI425
aI376
aI395
aI447
aI514
aI531
aI487
aI520
aI312
aI550
aI406
aI388
aI508
aI608
aI335
aI406
aI317
aI483
aI255
aI320
aI337
aI362
aI637
aI405
aI295
aI611
aI314
aI494
aI352
aI371
aI386
aI419
aI452
aI371
aI505
aI517
aI486
aI433
aI360
aI517
aI449
aI401
aI391
aI454
aI615
aI458
aI291
aI419
aI390
aI321
aI556
aI487
aI531
aI531
aI597
aI475
aI612
aI343
aI571
aI334
aI426
aI327
aI571
aI563
aI242
aI398
aI387
aI237
aI468
aI292
aI347
aI395
aI325
aI293
aI455
aI651
aI486
aI416
aI295
aI325
aI498
aI342
aI595
aI313
aI390
aI457
aI444
aI348
aI525
aI416
aI491
aI467
aI360
aI427
aI320
aI371
aI368
aI348
aI356
aI430
aI490
aI241
aI303
aI574
aI566
aI407
aI468
aI464
aI373
aI411
aI469
aI399
aI326
aI499
aI412
aI469
aI345
aI533
aI532
aI466
aI338
aI359
aI580
aI594
aI535
aI443
aI441
aI360
aI327
aI344
aI438
aI379
aI249
aI444
aI326
aI552
aI451
aI375
aI615
aI436
aI328
aI441
aI813
aI345
aI448
aI323
aI444
aI614
aI416
aI363
aI286
aI320
aI481
aI237
aI650
aI594
aI404
aI419
aI357
aI545
aI427
aI411
aI320
aI386
aI462
aI421
aI348
aI329
aI330
aI444
aI523
aI492
aI600
aI394
aI292
aI430
aI251
aI297
aI397
aI554
aI334
aI339
aI506
aI322
aI671
aI373
aI284
aI247
aI449
aI355
aI400
aI613
aI246
aI330
aI321
aI397
aI318
aI476
aI732
aI316
aI342
aI371
aI258
aI349
aI295
aI240
aI390
aI288
aI473
aI328
aI445
aI468
aI332
aI333
aI552
aI497
aI568
aI398
aI622
aI312
aI345
aI435
aI419
aI563
aI457
aI613
aI640
aI358
aI424
aI448
aI432
aI583
aI328
aI449
aI667
aI384
aI474
aI288
aI318
aI573
aI407
aI554
aI688
aI501
aI339
aI376
aI417
aI536
aI518
aI381
aI319
aI445
aI447
aI362
aI319
aI402
aI424
aI359
aI467
aI412
aI513
aI617
aI257
aI246
aI400
aI696
aI380
aI576
aI384
aI384
aI386
aI499
aI322
aI603
aI336
aI816
aI607
aI403
aI445
aI448
aI286
aI348
aI365
aI300
aI555
aI361
aI319
aI285
aI275
aI275
aI495
aI535
aI402
aI348
aI481
aI284
aI247
aI378
aI359
aI434
aI381
aI423
aI431
aI385
aI472
aI464
aI317
aI306
aI477
aI444
aI425
aI327
aI625
aI269
aI387
aI429
aI428
aI384
aI560
aI352
aI435
aI451
aI490
aI606
aI361
aI513
aI309
aI289
aI405
aI421
aI411
aI467
aI320
aI449
aI398
aI388
aI416
aI304
aI287
aI817
aI461
aI394
aI404
aI327
aI495
aI730
aI299
aI668
aI428
aI328
aI357
aI355
aI338
aI367
aI325
aI341
aI582
aI247
aI622
aI526
aI418
aI528
aI312
aI463
aI561
aI419
aI437
aI958
aI333
aI326
aI394
aI319
aI404
aI476
aI391
aI399
aI238
aI502
aI387
aI520
aI547
aI333
aI391
aI453
aI404
aI387
aI306
aI622
aI517
aI437
aI257
aI452
aI327
aI607
aI558
aI581
aI399
aI552
aI724
aI384
aI331
aI396
aI597
aI242
aI317
aI340
aI426
aI386
aI379
aI587
aI682
aI561
aI608
aI377
aI323
aI526
aI819
aI245
aI251
aI426
aI610
aI580
aI326
aI411
aI425
aI332
aI393
aI598
aI404
aI540
aI470
aI413
aI788
aI339
aI396
aI351
aI293
aI259
aI408
aI377
aI440
aI633
aI519
aI450
aI401
aI403
aI531
aI427
aI422
aI687
aI315
aI319
aI405
aI565
aI465
aI491
aI465
aI449
aI423
aI348
aI419
aI315
aI438
aI468
aI347
aI456
aI466
aI329
aI390
aI355
aI285
aI215
aI355
aI389
aI295
aI477
aI307
aI432
aI481
aI625
aI309
aI465
aI443
aI419
aI333
aI386
aI285
aI431
aI319
aI291
aI311
aI448
aI412
aI249
aI388
aI360
aI350
aI237
aI314
aI615
aI503
aI317
aI347
aI352
aI408
aI434
aI554
aI362
aI402
aI385
aI529
aI366
aI370
aI328
aI574
aI502
aI353
aI310
aI428
aI414
aI344
aI601
aI441
aI315
aI409
aI1002
aI394
aI238
aI338
aI261
aI544
aI765
aI422
aI469
aI243
aI405
aI375
aI332
aI234
aI479
aI530
aI474
aI486
aI438
aI343
aI434
aI594
aI628
aI348
aI472
aI306
aI422
aI408
aI438
aI366
aI490
aI503
aI324
aI418
aI356
aI467
aI457
aI409
aI397
aI424
aI497
aI543
aI339
aI481
aI473
aI461
aI553
aI443
aI419
aI459
aI426
aI552
aI385
aI317
aI587
aI385
aI333
aI341
aI482
aI320
aI443
aI342
aI459
aI238
aI357
aI338
aI565
aI675
aI389
aI409
aI350
aI400
aI439
aI549
aI348
aI405
aI316
aI386
aI483
aI327
aI327
aI453
aI315
aI315
aI390
aI409
aI419
aI455
aI250
aI420
aI673
aI392
aI666
aI408
aI251
aI394
aI532
aI398
aI452
aI579
aI594
aI466
aI506
aI451
aI368
aI252
aI561
aI524
aI323
aI441
aI499
aI458
aI429
aI596
aI245
aI395
aI462
aI677
aI444
aI375
aI302
aI339
aI401
aI535
aI633
aI501
aI474
aI407
aI240
aI305
aI245
aI288
aI335
aI561
aI418
aI527
aI282
aI348
aI350
aI244
aI381
aI487
aI491
aI641
aI294
aI347
aI419
aI508
aI258
aI262
aI327
aI437
aI415
aI429
aI397
aI584
aI409
aI428
aI855
aI372
aI318
aI434
aI370
aI389
aI487
aI324
aI395
aI315
aI417
aI455
aI366
aI408
aI464
aI396
aI374
aI312
aI420
aI591
aI311
aI481
aI374
aI400
aI339
aI678
aI444
aI342
aI466
aI400
aI317
aI405
aI497
aI318
aI418
aI528
aI240
aI403
aI316
aI308
aI436
aI245
aI328
aI347
aI244
aI418
aI240
aI383
aI669
aI364
aI464
aI493
aI528
aI385
aI441
aI455
aI392
aI553
aI405
aI491
aI464
aI318
aI1118
aI467
aI297
aI256
aI554
aI326
aI409
aI478
aI405
aI365
aI538
aI348
aI362
aI370
aI437
aI488
aI333
aI305
aI368
aI532
aI353
aI303
aI358
aI425
aI394
aI502
aI337
aI412
aI328
aI325
aI885
aI355
aI309
aI447
aI435
aI391
aI375
aI417
aI248
aI420
aI244
aI336
aI517
aI416
aI394
aI510
aI391
aI400
aI388
aI445
aI404
aI411
aI621
aI996
aI327
aI486
aI349
aI387
aI938
aI331
aI308
aI466
aI321
aI405
aI298
aI367
aI329
aI285
aI338
aI584
aI556
aI390
aI495
aI431
aI436
aI717
aI345
aI380
aI544
aI329
aI430
aI801
aI325
aI393
aI613
aI410
aI334
aI397
aI411
aI486
aI317
aI317
aI798
aI346
aI416
aI510
aI468
aI305
aI376
aI433
aI349
aI382
aI434
aI266
aI536
aI562
aI252
aI451
aI377
aI394
aI244
aI491
aI326
aI423
aI431
aI315
aI309
aI314
aI552
aI352
aI322
aI344
aI279
aI410
aI335
aI341
aI396
aI327
aI436
aI321
aI541
aI533
aI480
aI582
aI342
aI431
aI418
aI250
aI504
aI267
aI404
aI324
aI431
aI398
aI492
aI485
aI359
aI429
aI660
aI281
aI369
aI470
aI542
aI402
aI418
aI330
aI372
aI320
aI410
aI350
aI472
aI475
aI317
aI271
aI332
aI366
aI241
aI329
aI390
aI380
aI643
aI348
aI305
aI515
aI371
aI570
aI571
aI566
aI251
aI248
aI314
aI249
aI255
aI378
aI282
aI390
aI463
aI343
aI442
aI336
aI392
aI242
aI453
aI398
aI383
aI319
aI342
aI444
aI473
aI299
aI483
aI241
aI339
aI336
aI358
aI333
aI386
aI237
aI407
aI437
aI247
aI422
aI481
aI458
aI351
aI513
aI522
aI351
aI733
aI254
aI450
aI463
aI434
aI449
aI295
aI447
aI452
aI333
aI320
aI405
aI239
aI424
aI718
aI477
aI318
aI410
aI361
aI264
aI487
aI369
aI329
aI428
aI494
aI452
aI246
aI464
aI398
aI686
aI472
aI420
aI381
aI412
aI398
aI453
aI397
aI396
aI631
aI487
aI403
aI370
aI435
aI244
aI333
aI468
aI449
aI328
aI446
aI377
aI363
aI326
aI499
aI404
aI420
aI397
aI313
aI439
aI397
aI264
aI601
aI249
aI597
aI328
aI552
aI490
aI257
aI409
aI487
aI638
aI338
aI363
aI371
aI319
aI396
aI483
aI265
aI360
aI332
aI378
aI379
aI322
aI344
aI534
aI508
aI334
aI415
aI259
aI524
aI365
aI630
aI462
aI320
aI321
aI451
aI272
aI344
aI271
aI417
aI326
aI250
aI422
aI369
aI326
aI355
aI254
aI387
aI454
aI508
aI406
aI320
aI459
aI443
aI392
aI354
aI430
aI442
aI338
aI355
aI444
aI238
aI490
aI245
aI561
aI433
aI461
aI529
aI328
aI317
aI466
aI341
aI403
aI521
aI441
aI675
aI501
aI325
aI516
aI349
aI255
aI342
aI430
aI505
aI442
aI654
aI320
aI582
aI423
aI346
aI386
aI402
aI379
aI454
aI250
aI331
aI376
aI323
aI464
aI546
aI763
aI357
aI249
aI449
aI732
aI249
aI320
aI551
aI416
aI418
aI340
aI618
aI567
aI343
aI245
aI357
aI389
aI342
aI502
aI253
aI390
aI346
aI791
aI406
aI292
aI245
aI474
aI417
aI397
aI390
aI374
aI383
aI517
aI328
aI433
aI353
aI251
aI372
aI433
aI556
aI320
aI246
aI493
aI361
aI569
aI360
aI386
aI479
aI493
aI460
aI322
aI325
aI473
aI423
aI435
aI481
aI249
aI599
aI329
aI278
aI365
aI514
aI324
aI242
aI408
aI258
aI407
aI512
aI477
aI389
aI561
aI328
aI326
aI408
aI295
aI329
aI493
aI331
aI431
aI326
aI411
aI584
aI249
aI328
aI325
aI348
aI467
aI390
aI399
aI401
aI570
aI323
aI329
aI550
aI611
aI236
aI921
aI666
aI340
aI676
aI601
aI311
aI508
aI326
aI369
aI331
aI431
aI495
aI595
aI393
aI675
aI512
aI325
aI376
aI429
aI322
aI438
aI444
aI577
aI425
aI254
aI313
aI243
aI365
aI327
aI478
aI365
aI506
aI315
aI427
aI314
aI339
aI372
aI261
aI322
aI479
aI453
aI329
aI248
aI249
aI412
aI565
aI428
aI526
aI637
aI340
aI424
aI280
aI315
aI407
aI332
aI307
aI645
aI505
aI339
aI316
aI255
aI332
aI523
aI731
aI504
aI603
aI331
aI544
aI323
aI254
aI420
aI562
aI533
aI239
aI551
aI335
aI391
aI455
aI336
aI373
aI334
aI330
aI528
aI257
aI344
aI544
aI359
aI511
aI243
aI475
aI348
aI370
aI463
aI335
aI485
aI397
aI325
aI445
aI257
aI476
aI464
aI288
aI406
aI329
aI397
aI317
aI327
aI443
aI358
aI703
aI376
aI504
aI249
aI417
aI309
aI283
aI433
aI319
aI357
aI246
aI239
aI801
aI386
aI338
aI247
aI351
aI344
aI492
aI500
aI319
aI467
aI442
aI250
aI414
aI425
aI373
aI344
aI238
aI276
aI553
aI245
aI432
aI496
aI268
aI433
aI544
aI326
aI464
aI328
aI244
aI348
aI311
aI249
aI393
aI344
aI261
aI460
aI399
aI388
aI338
aI242
aI321
aI464
aI480
aI388
aI472
aI343
aI320
aI489
aI321
aI335
aI626
aI406
aI483
aI328
aI397
aI260
aI313
aI364
aI330
aI418
aI328
aI527
aI392
aI246
aI685
aI362
aI430
aI495
aI386
aI325
aI514
aI350
aI251
aI336
aI216
aI463
aI300
aI297
aI411
aI377
aI554
aI285
aI322
aI590
aI402
aI306
aI668
aI376
aI310
aI338
aI320
aI324
aI439
aI355
aI322
aI457
aI245
aI320
aI642
aI419
aI319
aI339
aI481
aI242
aI361
aI320
aI345
aI397
aI534
aI435
aI295
aI326
aI263
aI400
aI302
aI461
aI404
aI431
aI257
aI552
aI373
aI306
aI511
aI481
aI533
aI451
aI466
aI321
aI346
aI405
aI364
aI319
aI279
aI372
aI617
aI334
aI314
aI265
aI332
aI590
aI393
aI432
aI260
aI437
aI501
aI387
aI458
aI441
aI319
aI579
aI342
aI368
aI613
aI403
aI311
aI385
aI480
aI324
aI400
aI482
aI308
aI385
aI337
aI362
aI378
aI254
aI355
aI330
aI393
aI589
aI267
aI471
aI659
aI436
aI324
aI320
aI257
aI252
aI244
aI309
aI552
aI535
aI388
aI340
aI251
aI515
aI449
aI474
aI366
aI272
aI322
aI404
aI335
aI344
aI319
aI414
aI412
aI319
aI575
aI394
aI331
aI333
aI322
aI243
aI262
aI317
aI416
aI240
aI307
aI470
aI554
aI246
aI802
aI388
aI321
aI424
aI428
aI359
aI393
aI383
aI473
aI390
aI245
aI488
aI329
aI374
aI580
aI454
aI403
aI272
aI455
aI294
aI469
aI426
aI442
aI240
aI307
aI469
aI355
aI396
aI255
aI392
aI304
aI453
aI439
aI575
aI304
aI315
aI349
aI339
aI470
aI489
aI670
aI420
aI387
aI248
aI362
aI341
aI531
aI407
aI647
aI281
aI361
aI440
aI337
aI349
aI425
aI542
aI495
aI649
aI425
aI323
aI323
aI523
aI389
aI584
aI410
aI396
aI597
aI336
aI395
aI533
aI243
aI317
aI426
aI340
aI402
aI709
aI399
aI426
aI388
aI598
aI245
aI289
aI357
aI448
aI302
aI338
aI313
aI401
aI557
aI395
aI249
aI451
aI462
aI385
aI452
aI434
aI510
aI310
aI346
aI432
aI401
aI307
aI366
aI323
aI367
aI435
aI708
aI384
aI328
aI398
aI339
aI372
aI277
aI249
aI431
aI322
aI406
aI385
aI445
aI345
aI447
aI405
aI423
aI480
aI384
aI328
aI678
aI498
aI404
aI264
aI470
aI320
aI585
aI375
aI289
aI327
aI323
aI355
aI432
aI274
aI483
aI349
aI461
aI394
aI327
aI385
aI312
aI316
aI610
aI502
aI246
aI416
aI313
aI329
aI338
aI349
aI503
aI411
aI351
aI410
aI238
aI474
aI336
aI473
aI293
aI329
aI344
aI455
aI566
aI569
aI400
aI378
aI327
aI493
aI373
aI243
aI424
aI423
aI402
aI334
aI478
aI621
aI326
aI418
aI372
aI439
aI345
aI377
aI325
aI437
aI536
aI551
aI853
aI337
aI329
aI245
aI244
aI366
aI436
aI580
aI391
aI470
aI247
aI399
aI331
aI390
aI703
aI310
aI610
aI314
aI319
aI257
aI259
aI353
aI624
aI331
aI455
aI508
aI285
aI442
aI241
aI338
aI312
aI317
aI437
aI243
aI730
aI333
aI353
aI316
aI445
aI440
aI642
aI379
aI278
aI319
aI250
aI281
aI384
aI301
aI254
aI345
aI258
aI395
aI360
aI268
aI492
aI405
aI408
aI492
aI379
aI384
aI372
aI329
aI339
aI308
aI404
aI321
aI304
aI254
aI486
aI390
aI378
aI335
aI351
aI438
aI340
aI503
aI241
aI325
aI457
aI375
aI357
aI453
aI315
aI238
aI362
aI320
aI329
aI443
aI613
aI420
aI412
aI463
aI550
aI320
aI365
aI358
aI329
aI404
aI379
aI515
aI510
aI348
aI350
aI330
aI606
aI607
aI419
aI297
aI406
aI395
aI257
aI326
aI451
aI425
aI238
aI338
aI344
aI504
aI490
aI358
aI311
aI312
aI332
aI413
aI330
aI320
aI538
aI432
aI317
aI604
aI339
aI327
aI288
aI400
aI254
aI389
aI489
aI463
aI817
aI505
aI440
aI434
aI245
aI483
aI490
aI254
aI249
aI432
aI579
aI331
aI388
aI412
aI553
aI552
aI574
aI343
aI429
aI530
aI304
aI255
aI234
aI383
aI586
aI377
aI545
aI347
aI484
aI489
aI245
aI246
aI427
aI353
aI265
aI265
aI548
aI356
aI313
aI499
aI491
aI401
aI518
aI410
aI362
aI461
aI467
aI428
aI325
aI520
aI299
aI444
aI460
aI322
aI484
aI245
aI416
aI263
aI369
aI475
aI474
aI337
aI419
aI461
aI409
aI430
aI249
aI368
aI418
aI357
aI392
aI313
aI235
aI313
aI470
aI538
aI253
aI538
aI397
aI376
aI444
aI434
aI321
aI509
aI498
aI389
aI348
aI420
aI592
aI623
aI254
aI246
aI403
aI400
aI249
aI415
aI244
aI342
aI263
aI489
aI282
aI295
aI298
aI365
aI462
aI379
aI319
aI490
aI406
aI527
aI937
aI345
aI431
aI606
aI388
aI428
aI609
aI261
aI265
aI562
aI448
aI334
aI597
aI262
aI247
aI486
aI402
aI326
aI395
aI356
aI552
aI437
aI414
aI543
aI366
aI328
aI244
aI407
aI283
aI376
aI450
aI494
aI424
aI458
aI404
aI321
aI390
aI484
aI395
aI589
aI333
aI279
aI423
aI329
aI336
aI254
aI400
aI366
aI408
aI508
aI438
aI339
aI450
aI525
aI250
aI314
aI320
aI210
aI438
aI579
aI586
aI246
aI333
aI282
aI377
aI367
aI412
aI250
aI314
aI357
aI348
aI243
aI318
aI277
aI383
aI474
aI471
aI391
aI328
aI428
aI325
aI254
aI501
aI390
aI381
aI351
aI330
aI251
aI346
aI312
aI395
aI343
aI405
aI315
aI479
aI238
aI327
aI416
aI364
aI337
aI368
aI309
aI250
aI463
aI520
aI726
aI322
aI248
aI322
aI436
aI649
aI347
aI332
aI329
aI453
aI285
aI340
aI423
aI482
aI247
aI407
aI373
aI429
aI558
aI240
aI497
aI505
aI586
aI399
aI412
aI318
aI417
aI373
aI332
aI259
aI258
aI392
aI332
aI409
aI248
aI289
aI243
aI395
aI414
aI429
aI413
aI326
aI587
aI385
aI173
aI320
aI242
aI274
aI340
aI252
aI401
aI444
aI300
aI531
aI348
aI347
aI491
aI688
aI831
aI333
aI568
aI253
aI472
aI330
aI663
aI450
aI248
aI301
aI646
aI631
aI452
aI247
aI513
aI357
aI342
aI396
aI436
aI397
aI344
aI236
aI411
aI486
aI460
aI342
aI389
aI382
aI254
aI414
aI494
aI438
aI331
aI307
aI587
aI621
aI241
aI536
aI281
aI349
aI369
aI296
aI341
aI269
aI429
aI274
aI335
aI449
aI805
aI562
aI309
aI467
aI411
aI337
aI321
aI417
aI576
aI438
aI452
aI375
aI361
aI453
aI396
aI503
aI324
aI443
aI243
aI350
aI368
aI358
aI264
aI446
aI404
aI599
aI482
aI354
aI467
aI480
aI494
aI397
aI566
aI320
aI329
aI255
aI508
aI255
aI250
aI346
aI470
aI304
aI427
aI403
aI370
aI317
aI447
aI358
aI235
aI400
aI421
aI413
aI293
aI250
aI356
aI335
aI456
aI689
aI424
aI237
aI354
aI395
aI362
aI661
aI309
aI259
aI329
aI434
aI316
aI412
aI244
aI329
aI383
aI359
aI316
aI282
aI538
aI333
aI390
aI338
aI371
aI553
aI473
aI460
aI408
aI424
aI327
aI273
aI256
aI334
aI380
aI321
aI362
aI405
aI410
aI332
aI263
aI394
aI264
aI317
aI488
aI276
aI250
aI466
aI492
aI455
aI326
aI482
aI386
aI261
aI607
aI546
aI327
aI267
aI481
aI337
aI502
aI602
aI403
aI479
aI423
aI424
aI486
aI665
aI485
aI449
aI322
aI463
aI331
aI323
aI327
aI460
aI331
aI245
aI376
aI413
aI517
aI331
aI422
aI339
aI325
aI361
aI326
aI246
aI797
aI423
aI464
aI416
aI464
aI469
aI254
aI337
aI489
aI349
aI399
aI504
aI394
aI292
aI479
aI409
aI359
aI452
aI338
aI430
aI405
aI336
aI241
aI409
aI390
aI381
aI485
aI433
aI335
aI283
aI311
aI310
aI326
aI510
aI314
aI419
aI440
aI479
aI421
aI416
aI484
aI320
aI353
aI261
aI582
aI256
aI299
aI348
aI443
aI855
aI332
aI602
aI370
aI316
aI331
aI458
aI261
aI637
aI367
aI353
aI420
aI434
aI424
aI362
aI397
aI244
aI303
aI416
aI332
aI361
aI414
aI358
aI456
aI546
aI386
aI358
aI337
aI617
aI318
aI170
aI438
aI315
aI240
aI404
aI361
aI330
aI258
aI771
aI469
aI291
aI797
aI450
aI375
aI465
aI337
aI359
aI439
aI380
aI471
aI333
aI556
aI402
aI251
aI255
aI336
aI395
aI355
aI294
aI642
aI538
aI438
aI399
aI324
aI320
aI387
aI385
aI238
aI430
aI508
aI326
aI405
aI389
aI339
aI330
aI411
aI516
aI326
aI343
aI348
aI230
aI256
aI377
aI660
aI333
aI691
aI571
aI627
aI418
aI499
aI615
aI379
aI412
aI324
aI172
aI432
aI442
aI365
aI323
aI250
aI243
aI585
aI259
aI320
aI304
aI442
aI407
aI440
aI378
aI564
aI379
aI1017
aI331
aI248
aI256
aI249
aI433
aI321
aI483
aI463
aI568
aI253
aI458
aI373
aI330
aI328
aI327
aI380
aI392
aI449
aI459
aI242
aI417
aI322
aI255
aI331
aI409
aI448
aI352
aI460
aI471
aI463
aI242
aI407
aI377
aI385
aI260
aI359
aI443
aI372
aI343
aI332
aI545
aI500
aI474
aI380
aI446
aI257
aI574
aI319
aI324
aI408
aI331
aI363
aI435
aI411
aI341
aI420
aI438
aI416
aI260
aI369
aI475
aI402
aI557
aI328
aI252
aI336
aI450
aI564
aI358
aI532
aI580
aI384
aI346
aI414
aI252
aI247
aI247
aI329
aI517
aI169
aI381
aI252
aI384
aI276
aI387
aI482
aI385
aI329
aI503
aI473
aI509
aI469
aI264
aI491
aI227
aI338
aI526
aI460
aI338
aI341
aI394
aI320
aI485
aI415
aI556
aI624
aI298
aI530
aI449
aI254
aI324
aI487
aI255
aI279
aI320
aI203
aI366
aI485
aI403
aI489
aI480
aI317
aI317
aI336
aI570
aI302
aI342
aI344
aI601
aI262
aI494
aI373
aI352
aI447
aI244
aI503
aI291
aI387
aI303
aI300
aI376
aI429
aI510
aI412
aI322
aI502
aI361
aI336
aI317
aI337
aI247
aI320
aI305
aI401
aI494
aI249
aI261
aI627
aI250
aI426
aI320
aI419
aI663
aI350
aI376
aI317
aI320
aI426
aI338
aI407
aI478
aI257
aI369
aI532
aI775
aI768
aI445
aI330
aI403
aI329
aI321
aI314
aI252
aI374
aI373
aI284
aI328
aI416
aI340
aI252
aI423
aI328
aI251
aI415
aI612
aI320
aI305
aI492
aI332
aI352
aI272
aI340
aI419
aI359
aI667
aI337
aI242
aI392
aI523
aI405
aI258
aI489
aI328
aI575
aI464
aI488
aI329
aI337
aI489
aI367
aI846
aI499
aI341
aI325
aI448
aI421
aI413
aI256
aI265
aI370
aI389
aI406
aI257
aI256
aI374
aI475
aI326
aI163
aI462
aI429
aI383
aI432
aI327
aI669
aI378
aI356
aI494
aI322
aI502
aI416
aI422
aI321
aI391
aI249
aI517
aI487
aI256
aI312
aI341
aI406
aI431
aI402
aI344
aI514
aI337
aI456
aI471
aI340
aI331
aI797
aI379
aI330
aI399
aI230
aI336
aI483
aI363
aI506
aI251
aI507
aI297
aI255
aI302
aI290
aI380
aI360
aI322
aI619
aI700
aI173
aI371
aI344
aI425
aI419
aI521
aI461
aI346
aI406
aI246
aI421
aI252
aI358
aI332
aI318
aI344
aI305
aI340
aI468
aI410
aI363
aI451
aI321
aI415
aI612
aI334
aI485
aI509
aI298
aI286
aI394
aI604
aI342
aI322
aI322
aI496
aI347
aI345
aI472
aI244
aI550
aI410
aI507
aI386
aI372
aI369
aI398
aI335
aI255
aI495
aI349
aI338
aI199
aI436
aI316
aI268
aI489
aI253
aI332
aI257
aI494
aI329
aI415
aI415
aI407
aI427
aI349
aI440
aI618
aI347
aI442
aI422
aI533
aI440
aI249
aI332
aI328
aI402
aI410
aI259
aI453
aI345
aI400
aI274
aI282
aI280
aI376
aI383
aI171
aI338
aI513
aI549
aI427
aI422
aI258
aI400
aI597
aI498
aI483
aI477
aI295
aI343
aI470
aI442
aI261
aI166
aI417
aI353
aI244
aI467
aI477
aI468
aI571
aI250
aI354
aI255
aI446
aI442
aI339
aI615
aI365
aI567
aI320
aI428
aI319
aI244
aI380
aI421
aI601
aI368
aI421
aI361
aI323
aI831
aI501
aI250
aI331
aI413
aI557
aI339
aI303
aI365
aI516
aI485
aI266
aI428
aI605
aI308
aI379
aI361
aI344
aI490
aI250
aI481
aI456
aI482
aI367
aI240
aI337
aI281
aI325
aI332
aI368
aI383
aI435
aI399
aI377
aI250
aI380
aI437
aI343
aI389
aI409
aI415
aI276
aI414
aI501
aI279
aI639
aI405
aI299
aI470
aI313
aI344
aI545
aI343
aI316
aI546
aI320
aI697
aI296
aI324
aI430
aI355
aI405
aI442
aI359
aI319
aI320
aI410
aI315
aI256
aI431
aI317
aI644
aI445
aI365
aI316
aI290
aI355
aI375
aI222
aI499
aI503
aI352
aI301
aI291
aI380
aI340
aI400
aI356
aI503
aI362
aI433
aI457
aI419
aI466
aI259
aI388
aI254
aI391
aI334
aI460
aI168
aI403
aI330
aI595
aI562
aI494
aI418
aI400
aI375
aI293
aI261
aI475
aI606
aI267
aI579
aI853
aI699
aI254
aI388
aI350
aI406
aI432
aI321
aI251
aI256
aI388
aI347
aI253
aI249
aI336
aI289
aI520
aI403
aI240
aI461
aI319
aI288
aI257
aI325
aI250
aI249
aI423
aI422
aI471
aI409
aI426
aI365
aI234
aI342
aI177
aI432
aI322
aI261
aI253
aI495
aI316
aI290
aI322
aI740
aI370
aI593
aI248
aI242
aI510
aI674
aI324
aI393
aI368
aI437
aI758
aI393
aI289
aI440
aI794
aI441
aI331
aI789
aI417
aI265
aI367
aI303
aI339
aI439
aI270
aI379
aI255
aI322
aI301
aI407
aI242
aI238
aI363
aI256
aI257
aI380
aI476
aI247
aI255
aI243
aI415
aI180
aI331
aI325
aI352
aI340
aI355
aI408
aI328
aI281
aI446
aI251
aI339
aI330
aI395
aI559
aI615
aI509
aI509
aI402
aI399
aI256
aI598
aI288
aI331
aI282
aI362
aI260
aI462
aI313
aI437
aI279
aI280
aI411
aI268
aI273
aI354
aI375
aI248
aI849
aI421
aI314
aI279
aI300
aI380
aI409
aI552
aI302
aI568
aI286
aI424
aI250
aI244
aI443
aI326
aI339
aI250
aI483
aI577
aI492
aI382
aI239
aI288
aI246
aI258
aI180
aI403
aI429
aI646
aI474
aI499
aI425
aI541
aI344
aI306
aI363
aI398
aI407
aI764
aI530
aI305
aI322
aI622
aI388
aI261
aI249
aI395
aI463
aI330
aI470
aI251
aI459
aI261
aI250
aI337
aI413
aI367
aI519
aI436
aI281
aI239
aI317
aI251
aI444
aI311
aI466
aI258
aI452
aI327
aI477
aI415
aI386
aI461
aI320
aI449
aI354
aI242
aI253
aI255
aI280
aI385
aI516
aI462
aI393
aI324
aI278
aI621
aI291
aI450
aI654
aI241
aI509
aI505
aI340
aI337
aI338
aI427
aI341
aI255
aI605
aI276
aI251
aI294
aI415
aI254
aI409
aI419
aI466
aI377
aI414
aI366
aI728
aI290
aI457
aI423
aI500
aI318
aI260
aI292
aI329
aI613
aI317
aI362
aI454
aI480
aI285
aI380
aI339
aI325
aI321
aI363
aI414
aI403
aI352
aI511
aI323
aI314
aI337
aI273
aI488
aI328
aI260
aI286
aI344
aI447
aI448
aI280
aI305
aI383
aI444
aI485
aI341
aI412
aI254
aI381
aI323
aI239
aI490
aI449
aI242
aI394
aI432
aI479
aI504
aI433
aI526
aI398
aI399
aI372
aI481
aI317
aI460
aI297
aI172
aI315
aI252
aI394
aI248
aI285
aI411
aI386
aI529
aI347
aI347
aI563
aI673
aI398
aI327
aI407
aI273
aI363
aI377
aI247
aI730
aI312
aI349
aI422
aI590
aI358
aI370
aI703
aI549
aI400
aI239
aI317
aI487
aI239
aI356
aI344
aI275
aI340
aI323
aI381
aI308
aI326
aI380
aI255
aI436
aI280
aI283
aI451
aI370
aI302
aI476
aI383
aI566
aI336
aI332
aI550
aI319
aI407
aI544
aI524
aI408
aI276
aI337
aI243
aI339
aI335
aI465
aI284
aI343
aI249
aI338
aI323
aI336
aI627
aI251
aI581
aI317
aI432
aI319
aI395
aI431
aI251
aI432
aI322
aI420
aI497
aI393
aI254
aI317
aI419
aI337
aI360
aI256
aI583
aI351
aI596
aI663
aI248
aI426
aI480
aI316
aI252
aI364
aI340
aI270
aI393
aI469
aI330
aI178
aI591
aI224
aI383
aI297
aI434
aI329
aI419
aI407
aI336
aI332
aI286
aI364
aI346
aI371
aI276
aI336
aI310
aI268
aI459
aI243
aI499
aI324
aI257
aI638
aI299
aI253
aI342
aI249
aI245
aI405
aI479
aI500
aI709
aI632
aI258
aI392
aI486
aI578
aI545
aI473
aI343
aI417
aI261
aI315
aI398
aI325
aI405
aI398
aI249
aI351
aI656
aI390
aI424
aI594
aI382
aI499
aI261
aI248
aI331
aI443
aI251
aI365
aI322
aI275
aI281
aI419
aI253
aI324
aI483
aI513
aI357
aI252
aI372
aI341
aI344
aI519
aI272
aI299
aI323
aI412
aI251
aI603
aI239
aI395
aI329
aI549
aI427
aI392
aI244
aI318
aI334
aI409
aI439
aI386
aI526
aI290
aI312
aI497
aI420
aI407
aI342
aI338
aI367
aI450
aI497
aI410
aI312
aI311
aI250
aI525
aI313
aI242
aI624
aI522
aI354
aI622
aI345
aI378
aI388
aI420
aI242
aI371
aI269
aI239
aI339
aI350
aI269
aI393
aI482
aI471
aI346
aI325
aI359
aI257
aI252
aI425
aI342
aI463
aI258
aI597
aI270
aI349
aI444
aI326
aI420
aI411
aI354
aI291
aI635
aI419
aI488
aI267
aI244
aI504
aI465
aI327
aI433
aI383
aI569
aI401
aI436
aI320
aI388
aI338
aI406
aI263
aI241
aI340
aI337
aI449
aI383
aI318
aI401
aI510
aI347
aI538
aI244
aI325
aI339
aI265
aI562
aI396
aI257
aI389
aI337
aI396
aI546
aI440
aI373
aI485
aI244
aI343
aI309
aI371
aI666
aI359
aI420
aI326
aI330
aI340
aI251
aI306
aI325
aI342
aI334
aI325
aI335
aI445
aI314
aI328
aI301
aI247
aI339
aI355
aI257
aI245
aI464
aI364
aI507
aI339
aI341
aI283
aI492
aI410
aI397
aI255
aI343
aI315
aI253
aI532
aI391
aI344
aI429
aI247
aI288
aI253
aI335
aI321
aI263
aI540
aI370
aI370
aI502
aI320
aI360
aI271
aI296
aI382
aI422
aI871
aI417
aI414
aI318
aI373
aI276
aI354
aI563
aI249
aI627
aI323
aI334
aI349
aI358
aI407
aI583
aI404
aI400
aI419
aI245
aI271
aI349
aI287
aI637
aI184
aI257
aI403
aI361
aI417
aI347
aI527
aI557
aI399
aI255
aI479
aI511
aI417
aI328
aI323
aI452
aI429
aI534
aI563
aI462
aI425
aI499
aI350
aI443
aI175
aI438
aI241
aI345
aI369
aI261
aI436
aI446
aI425
aI361
aI418
aI447
aI243
aI405
aI291
aI335
aI345
aI606
aI324
aI552
aI400
aI660
aI251
aI697
aI399
aI428
aI460
aI309
aI247
aI297
aI360
aI413
aI387
aI244
aI485
aI258
aI429
aI395
aI364
aI448
aI528
aI255
aI439
aI291
aI252
aI306
aI564
aI437
aI405
aI331
aI255
aI489
aI331
aI328
aI294
aI459
aI264
aI243
aI307
aI241
aI321
aI370
aI356
aI407
aI247
aI432
aI416
aI497
aI415
aI246
aI242
aI423
aI401
aI497
aI331
aI256
aI448
aI297
aI231
aI269
aI323
aI491
aI389
aI341
aI457
aI406
aI398
aI337
aI386
aI404
aI724
aI423
aI307
aI251
aI385
aI351
aI390
aI357
aI247
aI326
aI331
aI339
aI381
aI390
aI330
aI249
aI331
aI324
aI347
aI253
aI405
aI259
aI247
aI325
aI241
aI560
aI392
aI548
aI750
aI379
aI367
aI236
aI387
aI270
aI407
aI363
aI230
aI264
aI328
aI253
aI337
aI322
aI865
aI405
aI346
aI432
aI310
aI403
aI585
aI248
aI384
aI284
aI420
aI216
aI422
aI668
aI399
aI286
aI364
aI248
aI501
aI332
aI409
aI383
aI341
aI483
aI617
aI409
aI490
aI329
aI403
aI323
aI364
aI371
aI331
aI389
aI264
aI392
aI447
aI417
aI406
aI329
aI238
aI398
aI261
aI285
aI346
aI493
aI395
aI433
aI391
aI315
aI420
aI376
aI247
aI258
aI250
aI292
aI376
aI295
aI448
aI477
aI341
aI265
aI483
aI304
aI319
aI782
aI332
aI346
aI461
aI313
aI416
aI258
aI251
aI328
aI345
aI492
aI364
aI364
aI409
aI426
aI377
aI242
aI458
aI371
aI189
aI267
aI505
aI334
aI397
aI454
aI396
aI458
aI422
aI610
aI414
aI344
aI240
aI349
aI247
aI346
aI413
aI359
aI312
aI365
aI473
aI259
aI255
aI344
aI594
aI376
aI363
aI557
aI432
aI390
aI403
aI255
aI430
aI331
aI267
aI361
aI423
aI253
aI263
aI352
aI401
aI461
aI504
aI471
aI365
aI312
aI256
aI328
aI328
aI243
aI281
aI340
aI383
aI262
aI370
aI311
aI404
aI328
aI257
aI366
aI399
aI251
aI581
aI253
aI522
aI256
aI370
aI357
aI412
aI557
aI311
aI318
aI395
aI444
aI379
aI397
aI249
aI313
aI778
aI305
aI406
aI252
aI468
aI503
aI414
aI432
aI387
aI385
aI469
aI405
aI260
aI412
aI505
aI480
aI399
aI245
aI246
aI469
aI562
aI454
aI315
aI278
aI331
aI454
aI323
aI240
aI423
aI478
aI376
aI512
aI368
aI252
aI347
aI325
aI356
aI345
aI240
aI255
aI503
aI412
aI333
aI360
aI619
aI251
aI187
aI421
aI324
aI499
aI314
aI251
aI478
aI426
aI486
aI330
aI248
aI252
aI406
aI318
aI325
aI669
aI473
aI378
aI318
aI337
aI382
aI372
aI401
aI445
aI382
aI412
aI287
aI385
aI179
aI457
aI258
aI440
aI445
aI311
aI280
aI260
aI390
aI410
aI344
aI354
aI337
aI252
aI391
aI375
aI330
aI468
aI245
aI300
aI430
aI391
aI375
aI295
aI471
aI630
aI368
aI322
aI369
aI295
aI399
aI275
aI433
aI356
aI331
aI266
aI243
aI251
aI269
aI322
aI373
aI356
aI406
aI579
aI395
aI492
aI328
aI343
aI324
aI495
aI392
aI432
aI460
aI367
aI513
aI393
aI347
aI241
aI460
aI331
aI250
aI626
aI300
aI547
aI335
aI247
aI454
aI328
aI399
aI362
aI373
aI329
aI244
aI249
aI349
aI244
aI261
aI351
aI286
aI353
aI333
aI269
aI319
aI298
aI327
aI320
aI514
aI434
aI344
aI669
aI258
aI332
aI317
aI462
aI336
aI349
aI260
aI335
aI437
aI564
aI321
aI375
aI443
aI251
aI527
aI384
aI457
aI254
aI363
aI350
aI254
aI281
aI574
aI432
aI367
aI375
aI250
aI263
aI392
aI516
aI241
aI324
aI348
aI364
aI341
aI579
aI282
aI328
aI394
aI672
aI437
aI391
aI382
aI503
aI331
aI328
aI472
aI300
aI333
aI519
aI360
aI429
aI447
aI350
aI244
aI555
aI305
aI502
aI446
aI281
aI416
aI355
aI410
aI265
aI363
aI304
aI541
aI279
aI247
aI324
aI288
aI560
aI414
aI351
aI330
aI331
aI673
aI333
aI427
aI344
aI475
aI351
aI406
aI344
aI437
aI379
aI380
aI338
aI402
aI344
aI436
aI781
aI480
aI419
aI331
aI343
aI629
aI255
aI465
aI415
aI358
aI326
aI288
aI332
aI639
aI388
aI204
aI319
aI278
aI253
aI286
aI377
aI290
aI325
aI272
aI316
aI560
aI495
aI329
aI263
aI336
aI357
aI247
aI323
aI325
aI330
aI251
aI285
aI456
aI400
aI354
aI462
aI340
aI238
aI255
aI562
aI422
aI203
aI460
aI250
aI308
aI448
aI341
aI373
aI504
aI380
aI327
aI471
aI392
aI435
aI843
aI629
aI382
aI328
aI239
aI622
aI392
aI252
aI268
aI520
aI499
aI380
aI418
aI414
aI365
aI408
aI437
aI326
aI366
aI365
aI530
aI291
aI426
aI325
aI362
aI243
aI338
aI336
aI304
aI324
aI435
aI328
aI325
aI320
aI488
aI318
aI432
aI491
aI363
aI517
aI421
aI302
aI444
aI324
aI338
aI338
aI481
aI247
aI234
aI338
aI257
aI250
aI251
aI452
aI322
aI427
aI329
aI432
aI590
aI429
aI241
aI252
aI236
aI448
aI496
aI275
aI560
aI416
aI247
aI391
aI351
aI250
aI281
aI443
aI324
aI380
aI327
aI790
aI510
aI266
aI275
aI647
aI329
aI321
aI437
aI378
aI257
aI506
aI344
aI248
aI182
aI257
aI404
aI404
aI335
aI321
aI422
aI251
aI463
aI248
aI253
aI417
aI362
aI337
aI401
aI343
aI347
aI324
aI406
aI364
aI480
aI462
aI354
aI381
aI333
aI252
aI395
aI390
aI575
aI330
aI338
aI387
aI384
aI254
aI594
aI250
aI252
aI386
aI249
aI334
aI326
aI479
aI399
aI276
aI651
aI486
aI345
aI640
aI318
aI446
aI282
aI277
aI426
aI323
aI252
aI631
aI244
aI386
aI343
aI568
aI388
aI375
aI386
aI338
aI724
aI429
aI247
aI483
aI569
aI415
aI265
aI324
aI411
aI407
aI251
aI254
aI294
aI523
aI315
aI253
aI411
aI262
aI404
aI340
aI375
aI438
aI380
aI619
aI341
aI254
aI344
aI351
aI435
aI540
aI438
aI401
aI326
aI253
aI403
aI324
aI425
aI494
aI693
aI364
aI317
aI418
aI329
aI415
aI251
aI365
aI330
aI552
aI419
aI412
aI398
aI416
aI365
aI401
aI274
aI257
aI635
aI258
aI381
aI252
aI427
aI287
aI391
aI353
aI256
aI557
aI419
aI276
aI441
aI456
aI417
aI281
aI478
aI429
aI458
aI423
aI403
aI452
aI401
aI414
aI247
aI429
aI246
aI340
aI555
aI335
aI435
aI297
aI391
aI439
aI664
aI335
aI661
aI260
aI351
aI421
aI248
aI336
aI244
aI390
aI379
aI504
aI424
aI344
aI371
aI537
aI423
aI382
aI398
aI239
aI285
aI390
aI182
aI559
aI559
aI347
aI245
aI330
aI414
aI386
aI328
aI457
aI263
aI490
aI318
aI285
aI339
aI333
aI429
aI323
aI337
aI519
aI349
aI453
aI334
aI169
aI392
aI447
aI334
aI385
aI349
aI476
aI511
aI292
aI496
aI429
aI337
aI319
aI333
aI500
aI257
aI453
aI318
aI352
aI359
aI421
aI336
aI340
aI299
aI326
aI414
aI535
aI264
aI336
aI339
aI262
aI491
aI498
aI413
aI348
aI252
aI573
aI371
aI562
aI314
aI596
aI563
aI325
aI406
aI477
aI497
aI426
aI347
aI249
aI289
aI398
aI553
aI380
aI342
aI647
aI408
aI506
aI355
aI400
aI327
aI375
aI378
aI339
aI380
aI340
aI424
aI657
aI429
aI343
aI249
aI415
aI468
aI423
aI468
aI235
aI296
aI474
aI424
aI350
aI456
aI429
aI309
aI383
aI551
aI251
aI246
aI358
aI354
aI485
aI376
aI274
aI565
aI596
aI259
aI334
aI411
aI331
aI354
aI293
aI267
aI366
aI329
aI495
aI320
aI258
aI384
aI430
aI455
aI265
aI360
aI561
aI481
aI390
aI409
aI338
aI331
aI323
aI403
aI325
aI262
aI255
aI264
aI371
aI237
aI334
aI325
aI416
aI332
aI395
aI462
aI323
aI240
aI324
aI410
aI502
aI557
aI340
aI281
aI375
aI637
aI335
aI429
aI405
aI259
aI467
aI259
aI318
aI379
aI321
aI418
aI326
aI492
aI323
aI468
aI399
aI248
aI249
aI256
aI237
aI250
aI358
aI326
aI380
aI437
aI435
aI402
aI409
aI367
aI303
aI330
aI442
aI249
aI329
aI340
aI797
aI339
aI396
aI324
aI418
aI321
aI348
aI351
aI315
aI470
aI443
aI359
aI414
aI367
aI433
aI450
aI278
aI339
aI538
aI276
aI370
aI406
aI440
aI543
aI485
aI340
aI270
aI327
aI406
aI519
aI304
aI320
aI473
aI447
aI378
aI556
aI493
aI256
aI401
aI253
aI403
aI293
aI319
aI618
aI390
aI247
aI388
aI247
aI343
aI465
aI296
aI448
aI370
aI243
aI339
aI322
aI411
aI447
aI331
aI341
aI411
aI542
aI327
aI375
aI290
aI309
aI327
aI315
aI298
aI351
aI298
aI329
aI679
aI468
aI263
aI275
aI362
aI248
aI513
aI319
aI368
aI374
aI479
aI441
aI315
aI279
aI395
aI371
aI264
aI246
aI386
aI433
aI343
aI248
aI398
aI348
aI485
aI255
aI502
aI264
aI270
aI448
aI254
aI309
aI295
aI337
aI343
aI305
aI329
aI259
aI378
aI266
aI246
aI328
aI338
aI539
aI417
aI253
aI315
aI292
aI386
aI537
aI346
aI705
aI356
aI351
aI314
aI336
aI254
aI270
aI388
aI429
aI447
aI370
aI337
aI394
aI288
aI268
aI409
aI388
aI497
aI251
aI317
aI360
aI253
aI429
aI396
aI335
aI320
aI459
aI464
aI313
aI261
aI332
aI304
aI311
aI330
aI267
aI260
aI511
aI510
aI340
aI341
aI253
aI336
aI333
aI255
aI390
aI350
aI460
aI298
aI486
aI253
aI353
aI346
aI220
aI247
aI246
aI348
aI335
aI258
aI376
aI533
aI249
aI441
aI259
aI424
aI340
aI252
aI248
aI340
aI456
aI409
aI370
aI409
aI273
aI574
aI358
aI551
aI789
aI364
aI273
aI403
aI410
aI335
aI394
aI246
aI733
aI336
aI403
aI360
aI334
aI329
aI392
aI259
aI423
aI256
aI433
aI343
aI358
aI250
aI361
aI671
aI247
aI360
aI324
aI351
aI427
aI382
aI330
aI356
aI426
aI326
aI329
aI725
aI365
aI242
aI253
aI310
aI393
aI259
aI287
aI397
aI426
aI247
aI460
aI336
aI348
aI324
aI388
aI398
aI244
aI520
aI407
aI327
aI479
aI408
aI318
aI467
aI291
aI326
aI412
aI174
aI253
aI247
aI387
aI338
aI327
aI174
aI397
aI460
aI373
aI370
aI425
aI330
aI340
aI284
aI255
aI341
aI253
aI249
aI443
aI463
aI354
aI252
aI212
aI519
aI352
aI403
aI340
aI319
aI406
aI441
aI255
aI372
aI680
aI349
aI513
aI650
aI274
aI512
aI433
aI424
aI235
aI452
aI246
aI340
aI273
aI351
aI341
aI564
aI434
aI252
aI263
aI198
aI295
aI375
aI285
aI327
aI466
aI363
aI405
aI338
aI329
aI366
aI400
aI329
aI300
aI500
aI377
aI279
aI354
aI253
aI350
aI447
aI543
aI326
aI289
aI412
aI430
aI361
aI329
aI370
aI271
aI399
aI254
aI397
aI294
aI599
aI354
aI432
aI430
aI452
aI500
aI253
aI274
aI419
aI322
aI408
aI391
aI254
aI273
aI302
aI336
aI497
aI649
aI536
aI466
aI251
aI253
aI265
aI547
aI703
aI327
aI332
aI248
aI333
aI266
aI368
aI337
aI480
aI320
aI373
aI255
aI686
aI247
aI323
aI334
aI340
aI338
aI444
aI338
aI254
aI405
aI372
aI268
aI258
aI401
aI339
aI332
aI314
aI387
aI324
aI306
aI326
aI409
aI601
aI489
aI290
aI322
aI531
aI260
aI284
aI357
aI311
aI580
aI248
aI250
aI486
aI584
aI533
aI581
aI315
aI281
aI457
aI331
aI261
aI459
aI314
aI261
aI436
aI346
aI330
aI549
aI338
aI409
aI412
aI451
aI339
aI320
aI534
aI356
aI361
aI296
aI541
aI343
aI670
aI402
aI361
aI341
aI340
aI411
aI438
aI408
aI384
aI510
aI275
aI283
aI332
aI346
aI333
aI260
aI382
aI347
aI320
aI247
aI374
aI410
aI292
aI316
aI401
aI504
aI479
aI265
aI328
aI485
aI296
aI333
aI482
aI323
aI332
aI499
aI517
aI334
aI384
aI334
aI596
aI259
aI258
aI350
aI332
aI416
aI301
aI289
aI296
aI437
aI244
aI411
aI347
aI388
aI223
aI315
aI235
aI685
aI379
aI246
aI364
aI297
aI442
aI315
aI259
aI473
aI344
aI568
aI424
aI362
aI393
aI390
aI366
aI397
aI656
aI405
aI248
aI320
aI332
aI351
aI433
aI386
aI409
aI381
aI322
aI340
aI346
aI250
aI323
aI170
aI380
aI241
aI574
aI341
aI403
aI428
aI525
aI269
aI326
aI396
aI257
aI496
aI348
aI617
aI248
aI470
aI235
aI469
aI251
aI353
aI364
aI517
aI300
aI377
aI439
aI414
aI295
aI452
aI321
aI435
aI373
aI356
aI473
aI411
aI261
aI255
aI324
aI443
aI336
aI165
aI308
aI263
aI322
aI372
aI245
aI251
aI398
aI409
aI333
aI365
aI251
aI455
aI625
aI246
aI348
aI588
aI366
aI272
aI397
aI572
aI336
aI343
aI426
aI663
aI409
aI522
aI352
aI293
aI371
aI448
aI329
aI259
aI324
aI562
aI331
aI329
aI329
aI316
aI547
aI417
aI339
aI181
aI322
aI322
aI429
aI242
aI409
aI351
aI248
aI343
aI297
aI384
aI335
aI421
aI340
aI348
aI384
aI250
aI410
aI243
aI502
aI171
aI329
aI354
aI454
aI463
aI393
aI328
aI297
aI279
aI337
aI270
aI321
aI303
aI232
aI343
aI328
aI458
aI405
aI345
aI258
aI472
aI252
aI265
aI458
aI335
aI324
aI457
aI402
aI586
aI263
aI244
aI504
aI278
aI383
aI555
aI308
aI296
aI280
aI248
aI530
aI385
aI250
aI245
aI264
aI688
aI274
aI537
aI319
aI363
aI327
aI397
aI356
aI346
aI565
aI257
aI337
aI321
aI252
aI481
aI602
aI490
aI414
aI253
aI360
aI419
aI346
aI324
aI413
aI478
aI254
aI468
aI437
aI182
aI262
aI366
aI210
aI318
aI323
aI462
aI397
aI187
aI351
aI322
aI249
aI527
aI426
aI260
aI251
aI383
aI332
aI373
aI433
aI247
aI351
aI289
aI258
aI431
aI246
aI351
aI483
aI252
aI338
aI420
aI522
aI324
aI362
aI259
aI470
aI345
aI255
aI420
aI258
aI550
aI248
aI592
aI191
aI573
aI262
aI264
aI364
aI385
aI265
aI515
aI559
aI388
aI297
aI355
aI288
aI354
aI481
aI463
aI351
aI321
aI407
aI181
aI416
aI287
aI248
aI490
aI498
aI297
aI250
aI279
aI255
aI365
aI264
aI433
aI440
aI347
aI348
aI323
aI249
aI332
aI670
aI383
aI253
aI398
aI277
aI262
aI625
aI360
aI439
aI242
aI342
aI371
aI244
aI501
aI405
aI715
aI379
aI399
aI269
aI351
aI260
aI264
aI276
aI255
aI412
aI400
aI386
aI335
aI325
aI335
aI244
aI579
aI425
aI391
aI401
aI461
aI419
aI250
aI413
aI334
aI577
aI507
aI316
aI316
aI432
aI337
aI474
aI510
aI248
aI258
aI561
aI232
aI276
aI370
aI258
aI260
aI295
aI450
aI356
aI319
aI244
aI418
aI370
aI459
aI437
aI372
aI334
aI289
aI334
aI423
aI286
aI261
aI360
aI356
aI468
aI420
aI354
aI324
aI350
aI342
aI559
aI653
aI341
aI326
aI339
aI315
aI352
aI296
aI327
aI342
aI345
aI397
aI250
aI340
aI598
aI448
aI431
aI249
aI264
aI245
aI390
aI260
aI405
aI410
aI269
aI574
aI533
aI338
aI475
aI439
aI282
aI452
aI418
aI689
aI372
aI326
aI444
aI570
aI424
aI378
aI324
aI341
aI522
aI252
aI228
aI240
aI323
aI408
aI273
aI419
aI404
aI248
aI291
aI421
aI322
aI290
aI335
aI512
aI411
aI425
aI363
aI331
aI435
aI666
aI241
aI286
aI325
aI346
aI328
aI358
aI243
aI270
aI281
aI346
aI236
aI531
aI529
aI518
aI252
aI364
aI363
aI260
aI418
aI423
aI330
aI512
aI333
aI254
aI421
aI425
aI338
aI471
aI474
aI498
aI444
aI375
aI334
aI447
aI322
aI170
aI345
aI341
aI243
aI361
aI505
aI260
aI222
aI341
aI428
aI325
aI303
aI349
aI344
aI430
aI341
aI319
aI428
aI244
aI306
aI286
aI322
aI332
aI328
aI496
aI311
aI369
aI384
aI489
aI331
aI334
aI316
aI451
aI255
aI318
aI176
aI458
aI286
aI436
aI244
aI279
aI372
aI367
aI377
aI258
aI466
aI258
aI258
aI290
aI517
aI496
aI278
aI281
aI352
aI292
aI320
aI339
aI475
aI405
aI367
aI348
aI359
aI450
aI502
aI498
aI399
aI280
aI364
aI321
aI276
aI178
aI350
aI294
aI473
aI317
aI396
aI313
aI328
aI408
aI218
aI371
aI322
aI245
aI413
aI178
aI324
aI367
aI258
aI395
aI277
aI331
aI325
aI325
aI396
aI378
aI343
aI334
aI464
aI331
aI552
aI338
aI262
aI392
aI339
aI468
aI264
aI411
aI445
aI246
aI279
aI252
aI430
aI496
aI394
aI427
aI309
aI721
aI381
aI351
aI263
aI395
aI281
aI363
aI265
aI352
aI373
aI582
aI340
aI266
aI356
aI287
aI334
aI673
aI240
aI299
aI331
aI351
aI391
aI522
aI434
aI259
aI335
aI262
aI327
aI255
aI423
aI428
aI343
aI451
aI260
aI405
aI257
aI339
aI396
aI240
aI328
aI246
aI418
aI329
aI408
aI426
aI357
aI462
aI404
aI544
aI435
aI329
aI438
aI339
aI399
aI426
aI659
aI329
aI311
aI426
aI392
aI435
aI439
aI249
aI434
aI467
aI332
aI373
aI253
aI467
aI402
aI484
aI463
aI335
aI257
aI342
aI339
aI268
aI253
aI498
aI342
aI472
aI258
aI334
aI327
aI258
aI390
aI444
aI376
aI262
aI349
aI371
aI383
aI334
aI475
aI243
aI334
aI427
aI335
aI455
aI398
aI387
aI336
aI325
aI512
aI283
aI256
aI387
aI175
aI431
aI253
aI388
aI245
aI460
aI432
aI410
aI318
aI393
aI366
aI331
aI372
aI341
aI356
aI304
aI489
aI263
aI455
aI339
aI589
aI348
aI244
aI352
aI336
aI247
aI248
aI359
aI306
aI366
aI344
aI413
aI396
aI240
aI261
aI250
aI359
aI446
aI326
aI433
aI329
aI348
aI345
aI242
aI320
aI384
aI362
aI552
aI526
aI416
aI341
aI326
aI199
aI360
aI440
aI353
aI289
aI327
aI576
aI435
aI344
aI321
aI341
aI358
aI381
aI384
aI333
aI258
aI251
aI327
aI317
aI485
aI280
aI421
aI458
aI372
aI354
aI592
aI335
aI250
aI243
aI267
aI250
aI336
aI248
aI355
aI378
aI322
aI326
aI328
aI595
aI428
aI510
aI383
aI529
aI619
aI445
aI331
aI378
aI405
aI513
aI406
aI359
aI433
aI394
aI325
aI471
aI247
aI259
aI356
aI414
aI513
aI368
aI253
aI373
aI396
aI435
aI253
aI320
aI264
aI525
aI313
aI352
aI185
aI283
aI357
aI263
aI258
aI328
aI376
aI473
aI330
aI472
aI305
aI333
aI317
aI244
aI245
aI278
aI382
aI498
aI485
aI539
aI402
aI330
aI546
aI251
aI380
aI170
aI612
aI471
aI224
aI528
aI336
aI272
aI249
aI243
aI253
aI253
aI254
aI459
aI270
aI255
aI623
aI250
aI549
aI265
aI314
aI425
aI453
aI239
aI160
aI246
aI440
aI253
aI451
aI328
aI256
aI336
aI309
aI256
aI399
aI568
aI331
aI333
aI337
aI399
aI483
aI567
aI441
aI339
aI343
aI376
aI348
aI391
aI251
aI343
aI364
aI355
aI324
aI348
aI311
aI259
aI432
aI321
aI259
aI323
aI359
aI400
aI257
aI354
aI293
aI248
aI324
aI480
aI571
aI256
aI289
aI428
aI334
aI320
aI367
aI434
aI414
aI704
aI246
aI340
aI252
aI336
aI333
aI310
aI378
aI243
aI279
aI526
aI341
aI350
aI367
aI476
aI531
aI395
aI334
aI553
aI249
aI542
aI513
aI273
aI264
aI386
aI386
aI680
aI330
aI411
aI342
aI455
aI470
aI308
aI324
aI398
aI257
aI251
aI330
aI253
aI373
aI363
aI578
aI507
aI376
aI343
aI352
aI318
aI310
aI444
aI246
aI359
aI365
aI259
aI318
aI315
aI344
aI261
aI261
aI336
aI477
aI341
aI336
aI261
aI245
aI261
aI328
aI333
aI185
aI524
aI248
aI369
aI310
aI179
aI331
aI416
aI277
aI441
aI262
aI311
aI402
aI386
aI333
aI500
aI359
aI406
aI262
aI418
aI334
aI396
aI357
aI345
aI429
aI452
aI368
aI186
aI262
aI363
aI345
aI327
aI243
aI297
aI356
aI666
aI253
aI244
aI257
aI407
aI366
aI376
aI476
aI292
aI461
aI249
aI388
aI320
aI335
aI486
aI341
aI353
aI324
aI241
aI332
aI238
aI414
aI256
aI332
aI300
aI393
aI415
aI337
aI327
aI397
aI434
aI248
aI319
aI435
aI435
aI411
aI264
aI314
aI249
aI532
aI324
aI330
aI333
aI331
aI364
aI247
aI351
aI289
aI257
aI258
aI356
aI592
aI436
aI258
aI271
aI339
aI388
aI266
aI537
aI578
aI349
aI341
aI395
aI320
aI384
aI301
aI316
aI393
aI343
aI332
aI434
aI265
aI403
aI644
aI251
aI490
aI282
aI187
aI256
aI248
aI647
aI339
aI381
aI326
aI332
aI419
aI470
aI245
aI328
aI335
aI243
aI395
aI355
aI584
aI325
aI367
aI588
aI531
aI317
aI351
aI383
aI444
aI247
aI434
aI485
aI478
aI323
aI460
aI375
aI247
aI270
aI385
aI280
aI330
aI483
aI264
aI408
aI384
aI336
aI361
aI250
aI495
aI372
aI445
aI522
aI561
aI258
aI512
aI405
aI291
aI414
aI171
aI331
aI414
aI474
aI424
aI251
aI262
aI283
aI235
aI504
aI279
aI356
aI494
aI488
aI239
aI355
aI263
aI205
aI243
aI508
aI262
aI356
aI275
aI364
aI363
aI617
aI331
aI268
aI245
aI245
aI473
aI270
aI521
aI458
aI452
aI639
aI496
aI420
aI351
aI397
aI335
aI673
aI332
aI370
aI510
aI376
aI249
aI182
aI266
aI333
aI356
aI348
aI259
aI182
aI211
aI260
aI403
aI289
aI411
aI432
aI398
aI423
aI262
aI334
aI461
aI256
aI253
aI335
aI474
aI332
aI263
aI256
aI324
aI246
aI357
aI427
aI563
aI255
aI405
aI498
aI336
aI471
aI260
aI434
aI523
aI502
aI338
aI348
aI496
aI305
aI251
aI263
aI269
aI456
aI364
aI409
aI282
aI414
aI579
aI260
aI332
aI512
aI319
aI351
aI492
aI328
aI546
aI411
aI430
aI244
aI378
aI584
aI251
aI468
aI258
aI340
aI347
aI347
aI273
aI343
aI537
aI272
aI285
aI261
aI436
aI416
aI428
aI294
aI457
aI249
aI274
aI253
aI243
aI352
aI401
aI607
aI315
aI305
aI265
aI467
aI282
aI393
aI333
aI414
aI505
aI335
aI266
aI573
aI332
aI339
aI271
aI339
aI328
aI413
aI260
aI265
aI512
aI319
aI429
aI328
aI268
aI362
aI342
aI396
aI430
aI444
aI392
aI466
aI343
aI543
aI238
aI285
aI268
aI528
aI338
aI252
aI517
aI245
aI488
aI453
aI385
aI249
aI499
aI337
aI265
aI385
aI440
aI262
aI250
aI330
aI342
aI278
aI462
aI246
aI294
aI359
aI327
aI249
aI481
aI433
aI517
aI487
aI246
aI337
aI475
aI631
aI377
aI328
aI355
aI238
aI530
aI336
aI325
aI542
aI321
aI368
aI379
aI326
aI265
aI258
aI421
aI264
aI548
aI357
aI532
aI429
aI335
aI249
aI348
aI449
aI177
aI340
aI266
aI249
aI241
aI443
aI449
aI331
aI389
aI371
aI211
aI347
aI332
aI268
aI282
aI381
aI324
aI497
aI537
aI253
aI310
aI254
aI330
aI410
aI420
aI387
aI248
aI255
aI612
aI531
aI251
aI250
aI379
aI256
aI345
aI445
aI359
aI359
aI385
aI472
aI254
aI238
aI339
aI657
aI345
aI624
aI318
aI359
aI506
aI479
aI520
aI289
aI346
aI250
aI402
aI566
aI427
aI253
aI243
aI536
aI278
aI260
aI362
aI434
aI177
aI374
aI347
aI325
aI461
aI415
aI338
aI328
aI416
aI347
aI331
aI404
aI509
aI322
aI286
aI338
aI249
aI404
aI427
aI270
aI331
aI253
aI332
aI241
aI321
aI255
aI589
aI669
aI337
aI259
aI485
aI288
aI313
aI319
aI486
aI283
aI180
aI500
aI318
aI340
aI488
aI349
aI308
aI355
aI529
aI318
aI635
aI321
aI441
aI402
aI385
aI466
aI280
aI438
aI310
aI258
aI507
aI341
aI410
aI353
aI323
aI307
aI252
aI332
aI398
aI329
aI745
aI248
aI343
aI260
aI352
aI392
aI341
aI330
aI254
aI250
aI330
aI349
aI396
aI346
aI286
aI325
aI343
aI261
aI297
aI478
aI395
aI512
aI368
aI351
aI252
aI521
aI522
aI446
aI329
aI325
aI342
aI172
aI450
aI243
aI439
aI366
aI275
aI325
aI351
aI251
aI374
aI425
aI251
aI340
aI283
aI499
aI256
aI347
aI269
aI353
aI503
aI337
aI258
aI369
aI304
aI255
aI325
aI427
aI335
aI257
aI179
aI341
aI474
aI239
aI709
aI267
aI522
aI345
aI334
aI251
aI528
aI371
aI264
aI345
aI255
aI357
aI257
aI259
aI494
aI257
aI243
aI414
aI326
aI349
aI542
aI337
aI332
aI464
aI429
aI258
aI262
aI193
aI318
aI420
aI468
aI430
aI263
aI447
aI276
aI330
aI397
aI338
aI344
aI340
aI264
aI274
aI345
aI313
aI474
aI397
aI252
aI252
aI244
aI249
aI316
aI405
aI632
aI394
aI354
aI254
aI363
aI345
aI437
aI326
aI439
aI376
aI441
aI259
aI340
aI474
aI331
aI505
aI347
aI417
aI363
aI370
aI269
aI343
aI570
aI335
aI516
aI253
aI364
aI285
aI260
aI357
aI456
aI457
aI257
aI421
aI345
aI307
aI590
aI457
aI505
aI324
aI340
aI370
aI477
aI395
aI271
aI331
aI255
aI431
aI469
aI248
aI332
aI249
aI174
aI592
aI421
aI503
aI399
aI500
aI332
aI405
aI439
aI493
aI405
aI575
aI413
aI353
aI511
aI330
aI228
aI492
aI260
aI259
aI542
aI257
aI275
aI350
aI344
aI181
aI399
aI275
aI347
aI326
aI229
aI331
aI369
aI257
aI249
aI190
aI575
aI343
aI551
aI392
aI368
aI533
aI551
aI344
aI383
aI486
aI413
aI263
aI338
aI365
aI332
aI357
aI268
aI390
aI514
aI310
aI485
aI343
aI333
aI249
aI330
aI264
aI393
aI341
aI368
aI376
aI365
aI571
aI512
aI507
aI320
aI565
aI396
aI305
aI284
aI467
aI368
aI434
aI338
aI393
aI252
aI517
aI319
aI330
aI399
aI256
aI344
aI342
aI321
aI366
aI366
aI263
aI473
aI684
aI542
aI244
aI364
aI171
aI450
aI437
aI221
aI247
aI376
aI264
aI329
aI335
aI390
aI413
aI333
aI259
aI398
aI326
aI375
aI258
aI336
aI367
aI250
aI259
aI254
aI421
aI555
aI308
aI337
aI249
aI357
aI330
aI332
aI251
aI448
aI335
aI395
aI368
aI247
aI511
aI322
aI246
aI531
aI370
aI487
aI298
aI406
aI437
aI506
aI436
aI383
aI376
aI299
aI408
aI258
aI327
aI256
aI644
aI502
aI477
aI765
aI241
aI340
aI335
aI360
aI362
aI252
aI341
aI456
aI564
aI339
aI262
aI246
aI327
aI392
aI169
aI328
aI356
aI433
aI436
aI357
aI260
aI448
aI403
aI254
aI358
aI437
aI350
aI331
aI255
aI179
aI334
aI562
aI261
aI433
aI422
aI362
aI341
aI312
aI390
aI252
aI264
aI332
aI320
aI352
aI333
aI490
aI472
aI470
aI245
aI356
aI447
aI384
aI395
aI580
aI299
aI511
aI340
aI645
aI416
aI253
aI251
aI494
aI359
aI251
aI348
aI393
aI316
aI261
aI436
aI321
aI466
aI343
aI452
aI247
aI252
aI332
aI340
aI447
aI326
aI432
aI257
aI320
aI239
aI246
aI261
aI302
aI418
aI512
aI321
aI402
aI497
aI495
aI571
aI264
aI329
aI320
aI334
aI258
aI419
aI458
aI259
aI347
aI376
aI262
aI347
aI284
aI476
aI669
aI259
aI259
aI482
aI279
aI471
aI430
aI433
aI339
aI429
aI413
aI323
aI325
aI411
aI430
aI392
aI463
aI246
aI265
aI488
aI335
aI266
aI498
aI395
aI574
aI319
aI541
aI415
aI318
aI399
aI438
aI390
aI181
aI319
aI361
aI409
aI415
aI393
aI326
aI460
aI569
aI473
aI250
aI256
aI272
aI619
aI242
aI317
aI268
aI248
aI252
aI262
aI253
aI354
aI376
aI317
aI401
aI249
aI252
aI351
aI357
aI491
aI756
aI380
aI175
aI356
aI283
aI337
aI495
aI178
aI250
aI243
aI309
aI244
aI503
aI513
aI305
aI344
aI273
aI245
aI440
aI324
aI337
aI357
aI397
aI322
aI548
aI365
aI324
aI360
aI396
aI529
aI373
aI353
aI338
aI387
aI414
aI257
aI299
aI240
aI486
aI250
aI409
aI371
aI464
aI498
aI254
aI432
aI610
aI391
aI384
aI420
aI414
aI258
aI242
aI342
aI411
aI574
aI379
aI315
aI342
aI354
aI380
aI252
aI409
aI280
aI318
aI252
aI332
aI507
aI256
aI278
aI323
aI392
aI497
aI319
aI345
aI374
aI340
aI248
aI417
aI265
aI396
aI264
aI390
aI268
aI249
aI235
aI359
aI334
aI329
aI532
aI241
aI258
aI266
aI402
aI173
aI465
aI256
aI386
aI326
aI375
aI574
aI311
aI249
aI266
aI435
aI462
aI245
aI444
aI248
aI348
aI252
aI390
aI456
aI378
aI252
aI526
aI439
aI257
aI377
aI386
aI412
aI381
aI467
aI291
aI325
aI466
aI204
aI376
aI275
aI590
aI353
aI339
aI278
aI507
aI625
aI438
aI333
aI280
aI329
aI318
aI355
aI326
aI334
aI332
aI433
aI290
aI331
aI189
aI269
aI332
aI316
aI261
aI396
aI291
aI271
aI261
aI264
aI340
aI322
aI273
aI320
aI424
aI256
aI444
aI879
aI245
aI357
aI258
aI334
aI392
aI259
aI313
aI256
aI357
aI418
aI278
aI252
aI335
aI264
aI339
aI396
aI383
aI444
aI362
aI346
aI411
aI387
aI268
aI251
aI588
aI553
aI251
aI344
aI460
aI549
aI258
aI391
aI254
aI290
aI343
aI419
aI265
aI258
aI331
aI483
aI533
aI362
aI329
aI251
aI395
aI290
aI244
aI252
aI393
aI337
aI245
aI278
aI386
aI245
aI320
aI323
aI266
aI392
aI263
aI460
aI410
aI498
aI246
aI458
aI320
aI345
aI381
aI267
aI302
aI247
aI437
aI352
aI224
aI251
aI458
aI309
aI431
aI375
aI272
aI303
aI342
aI433
aI407
aI454
aI268
aI407
aI398
aI305
aI292
aI333
aI490
aI332
aI254
aI322
aI320
aI260
aI348
aI348
aI345
aI332
aI364
aI389
aI241
aI460
aI268
aI384
aI348
aI247
aI255
aI472
aI503
aI416
aI380
aI417
aI324
aI390
aI261
aI561
aI386
aI254
aI271
aI518
aI342
aI246
aI529
aI362
aI244
aI288
aI353
aI655
aI314
aI363
aI242
aI329
aI327
aI234
aI449
aI252
aI376
aI439
aI383
aI325
aI255
aI323
aI399
aI286
aI249
aI258
aI337
aI346
aI436
aI276
aI420
aI381
aI490
aI300
aI530
aI399
aI487
aI620
aI245
aI323
aI313
aI337
aI270
aI360
aI258
aI279
aI383
aI252
aI373
aI458
aI371
aI378
aI442
aI249
aI255
aI353
aI332
aI323
aI255
aI296
aI259
aI398
aI421
aI253
aI402
aI419
aI249
aI366
aI271
aI307
aI595
aI633
aI311
aI364
aI238
aI456
aI367
aI388
aI345
aI510
aI249
aI341
aI421
aI244
aI237
aI441
aI265
aI257
aI375
aI272
aI557
aI357
aI546
aI286
aI295
aI301
aI342
aI572
aI257
aI261
aI364
aI260
aI558
aI330
aI256
aI425
aI272
aI315
aI361
aI342
aI375
aI603
aI252
aI265
aI311
aI256
aI202
aI241
aI449
aI264
aI620
aI328
aI370
aI255
aI261
aI342
aI377
aI447
aI424
aI373
aI270
aI343
aI256
aI175
aI245
aI439
aI315
aI440
aI538
aI261
aI262
aI308
aI290
aI318
aI254
aI398
aI476
aI605
aI270
aI273
aI426
aI167
aI326
aI257
aI341
aI515
aI393
aI330
aI336
aI333
aI498
aI646
aI410
aI248
aI466
aI330
aI260
aI172
aI323
aI317
aI259
aI562
aI349
aI347
aI250
aI442
aI242
aI304
aI337
aI489
aI491
aI412
aI399
aI513
aI465
aI253
aI384
aI448
aI254
aI311
aI530
aI258
aI349
aI326
aI562
aI385
aI320
aI536
aI289
aI377
aI316
aI475
aI335
aI244
aI385
aI328
aI417
aI397
aI328
aI238
aI371
aI337
aI332
aI266
aI341
aI328
aI423
aI258
aI402
aI376
aI344
aI340
aI995
aI254
aI257
aI399
aI255
aI342
aI248
aI387
aI290
aI254
aI373
aI323
aI273
aI247
aI340
aI251
aI401
aI451
aI399
aI395
aI307
aI376
aI416
aI345
aI178
aI172
aI274
aI251
aI425
aI322
aI345
aI376
aI590
aI405
aI271
aI251
aI317
aI320
aI334
aI493
aI260
aI368
aI362
aI344
aI256
aI410
aI348
aI430
aI248
aI387
aI401
aI404
aI250
aI428
aI364
aI352
aI255
aI474
aI421
aI422
aI247
aI443
aI371
aI503
aI437
aI442
aI263
aI173
aI441
aI443
aI331
aI293
aI380
aI256
aI365
aI505
aI448
aI304
aI360
aI249
aI434
aI255
aI254
aI358
aI335
aI559
aI271
aI265
aI486
aI406
aI362
aI357
aI279
aI450
aI358
aI494
aI250
aI348
aI343
aI371
aI316
aI322
aI342
aI330
aI326
aI309
aI251
aI516
aI353
aI264
aI339
aI267
a.(lp1
I10001
aI123
aI122
aI118
aI10001
aI10001
aI119
aI10001
aI120
aI10001
aI119
aI10001
aI119
aI115
aI115
aI10001
aI10001
aI10001
aI119
aI10001
aI115
aI10001
aI121
aI120
aI10001
aI122
aI10001
aI119
aI120
aI116
aI116
aI119
aI10001
aI119
aI10001
aI10001
aI118
aI10001
aI123
aI117
aI120
aI116
aI115
aI10001
aI115
aI10001
aI116
aI117
aI126
aI119
aI114
aI120
aI123
aI122
aI120
aI10001
aI114
aI121
aI120
aI120
aI120
aI118
aI119
aI116
aI116
aI114
aI123
aI128
aI120
aI116
aI10001
aI120
aI122
aI114
aI122
aI114
aI10001
aI121
aI10001
aI121
aI10001
aI10001
aI121
aI121
aI123
aI116
aI121
aI117
aI124
aI123
aI121
aI127
aI114
aI119
aI118
aI10001
aI115
aI114
aI117
aI124
aI121
aI121
aI121
aI114
aI114
aI124
aI123
aI116
aI121
aI114
aI128
aI115
aI118
aI125
aI115
aI122
aI122
aI122
aI122
aI122
aI122
aI122
aI116
aI115
aI122
aI122
aI122
aI117
aI114
aI113
aI122
aI122
aI122
aI123
aI121
aI113
aI126
aI125
aI124
aI117
aI116
aI122
aI114
aI123
aI117
aI123
aI122
aI121
aI122
aI121
aI116
aI122
aI122
aI122
aI169
aI154
aI90
aI88
aI88
aI122
aI101
aI159
aI154
aI161
aI155
aI90
aI113
aI93
aI157
aI86
aI124
aI166
aI158
aI182
aI159
aI156
aI89
aI156
aI156
aI170
aI159
aI161
aI93
aI159
aI88
aI97
aI166
aI165
aI165
aI159
aI166
aI161
aI159
aI87
aI99
aI159
aI160
aI161
aI205
aI164
aI163
aI89
aI161
aI163
aI167
aI161
aI92
aI162
aI99
aI106
aI164
aI95
aI149
aI90
aI91
aI190
aI103
aI162
aI102
aI91
aI103
aI165
aI93
aI164
aI171
aI166
aI165
aI163
aI163
aI95
aI164
aI97
aI98
aI166
aI173
aI90
aI164
aI164
aI164
aI168
aI165
aI92
aI178
aI165
aI165
aI164
aI110
aI164
aI89
aI165
aI164
aI164
aI92
aI95
aI96
aI92
aI165
aI123
aI98
aI170
aI170
aI166
aI169
aI91
aI94
aI111
aI94
aI166
aI91
aI93
aI92
aI166
aI166
aI116
aI94
aI166
aI171
aI166
aI169
aI186
aI167
aI92
aI182
aI169
aI98
aI96
aI177
aI93
aI96
aI10001
aI177
aI10001
aI94
aI109
aI98
aI96
aI175
aI171
aI96
aI169
aI177
aI169
aI10001
aI95
aI170
aI170
aI172
aI174
aI105
aI99
aI95
aI176
aI190
aI170
aI97
aI170
aI171
aI98
aI10001
aI170
aI10001
aI172
aI198
aI175
aI171
aI171
aI170
aI108
aI171
aI106
aI96
aI177
aI179
aI117
aI99
aI105
aI171
aI10001
aI171
aI10001
aI101
aI170
aI175
aI10001
aI173
aI172
aI175
aI175
aI178
aI182
aI172
aI111
aI189
aI172
aI172
aI103
aI176
aI172
aI10001
aI172
aI173
aI96
aI180
aI173
aI10001
aI10001
aI101
aI172
aI10001
aI176
aI172
aI100
aI10001
aI10001
aI176
aI172
aI180
aI175
aI173
aI174
aI10001
aI100
aI104
aI181
aI10001
aI10001
aI178
aI173
aI173
aI10001
aI178
aI174
aI144
aI10001
aI10001
aI10001
aI10001
aI185
aI123
aI189
aI178
aI10001
aI200
aI10001
aI10001
aI176
aI10001
aI184
aI98
aI10001
aI107
aI173
aI174
aI10001
aI100
aI10001
aI10001
aI174
aI173
aI176
aI10001
aI180
aI10001
aI183
aI10001
aI186
aI177
aI173
aI173
aI102
aI175
aI108
aI177
aI174
aI175
aI10001
aI177
aI10001
aI10001
aI174
aI183
aI176
aI176
aI183
aI175
aI189
aI10001
aI100
aI174
aI107
aI10001
aI10001
aI10001
aI175
aI176
aI10001
aI10001
aI10001
aI177
aI177
aI175
aI10001
aI10001
aI10001
aI175
aI10001
aI10001
aI10001
aI10001
aI10001
aI10001
aI176
aI176
aI189
aI128
aI10001
aI108
aI10001
aI122
aI180
aI10001
aI10001
aI192
aI10001
aI175
aI10001
aI10001
aI10001
aI112
aI10001
aI10001
aI183
aI181
aI178
aI176
aI10001
aI175
aI175
aI175
aI113
aI10001
aI175
aI177
aI175
aI177
aI181
aI175
aI176
aI10001
aI108
aI10001
aI203
aI107
aI175
aI175
aI104
aI186
aI10001
aI175
aI10001
aI10001
aI175
aI106
aI178
aI10001
aI10001
aI10001
aI10001
aI188
aI181
aI10001
aI183
aI110
aI177
aI115
aI108
aI10001
aI184
aI10001
aI10001
aI178
aI10001
aI10001
aI180
aI10001
aI188
aI10001
aI113
aI10001
aI124
aI10001
aI10001
aI137
aI184
aI10001
aI10001
aI176
aI10001
aI10001
aI105
aI178
aI10001
aI10001
aI178
aI129
aI10001
aI179
aI178
aI117
aI10001
aI177
aI188
aI124
aI179
aI10001
aI10001
aI120
aI107
aI106
aI182
aI187
aI180
aI177
aI10001
aI10001
aI10001
aI176
aI10001
aI10001
aI177
aI10001
aI105
aI182
aI10001
aI177
aI10001
aI177
aI10001
aI176
aI182
aI10001
aI203
aI10001
aI10001
aI178
aI10001
aI10001
aI177
aI180
aI10001
aI10001
aI10001
aI10001
aI10001
aI194
aI10001
aI10001
aI177
aI177
aI10001
aI10001
aI10001
aI10001
aI10001
aI10001
aI10001
aI10001
aI161
aI10001
aI177
aI10001
aI108
aI10001
aI10001
aI177
aI10001
aI10001
aI10001
aI10001
aI10001
aI10001
aI110
aI10001
aI178
aI177
aI122
aI10001
aI10001
aI10001
aI111
aI10001
aI10001
aI10001
aI199
aI179
aI176
aI10001
aI164
aI10001
aI10001
aI179
aI10001
aI181
aI10001
aI10001
aI179
aI10001
aI178
aI178
aI10001
aI10001
aI178
aI183
aI10001
aI10001
aI10001
aI196
aI182
aI10001
aI180
aI187
aI10001
aI179
aI10001
aI10001
aI183
aI10001
aI257
aI10001
aI10001
aI10001
aI10001
aI184
aI183
aI10001
aI10001
aI10001
aI10001
aI199
aI10001
aI10001
aI10001
aI10001
aI10001
aI10001
aI10001
aI181
aI10001
aI10001
aI128
aI10001
aI10001
aI132
aI10001
aI10001
aI179
aI185
aI10001
aI10001
aI178
aI10001
aI181
aI10001
aI10001
aI10001
aI178
aI178
aI10001
aI197
aI10001
aI10001
aI10001
aI10001
aI10001
aI10001
aI185
aI10001
aI10001
aI178
aI10001
aI10001
aI188
aI10001
aI185
aI178
aI10001
aI181
aI178
aI10001
aI10001
aI119
aI179
aI10001
aI10001
aI178
aI188
aI10001
aI180
aI10001
aI10001
aI10001
aI10001
aI10001
aI10001
aI178
aI10001
aI10001
aI127
aI180
aI10001
aI10001
aI10001
aI138
aI10001
aI179
aI10001
aI184
aI10001
aI10001
aI183
aI10001
aI10001
aI178
aI181
aI10001
aI10001
aI179
aI178
aI10001
aI10001
aI10001
aI217
aI10001
aI10001
aI10001
aI179
aI188
aI185
aI10001
aI10001
aI179
aI10001
aI178
aI178
aI10001
aI10001
aI10001
aI183
aI182
aI181
aI10001
aI185
aI10001
aI10001
aI10001
aI10001
aI10001
aI10001
aI10001
aI181
aI178
aI10001
aI183
aI179
aI10001
aI184
aI10001
aI10001
aI10001
aI10001
aI186
aI10001
aI10001
aI179
aI10001
aI125
aI10001
aI10001
aI10001
aI189
aI10001
aI186
aI10001
aI10001
aI10001
aI10001
aI210
aI10001
aI10001
aI10001
aI180
aI181
aI10001
aI181
aI194
aI180
aI10001
aI10001
aI10001
aI10001
aI186
aI10001
aI183
aI190
aI10001
aI182
aI185
aI179
aI10001
aI186
aI216
aI181
aI10001
aI185
aI179
aI10001
aI180
aI182
aI202
aI10001
aI10001
aI10001
aI10001
aI10001
aI10001
aI10001
aI10001
aI10001
aI188
aI10001
aI10001
aI10001
aI10001
aI10001
aI192
aI179
aI10001
aI10001
aI10001
aI10001
aI182
aI10001
aI182
aI195
aI181
aI10001
aI10001
aI10001
aI10001
aI180
aI10001
aI205
aI10001
aI10001
aI179
aI206
aI10001
aI10001
aI195
aI181
aI10001
aI10001
aI10001
aI10001
aI184
aI10001
aI10001
aI10001
aI180
aI179
aI10001
aI179
aI198
aI10001
aI10001
aI210
aI10001
aI10001
aI188
aI10001
aI10001
aI10001
aI198
aI10001
aI10001
aI10001
aI198
aI10001
aI10001
aI10001
aI10001
aI183
aI10001
aI10001
aI10001
aI10001
aI179
aI184
aI10001
aI10001
aI179
aI197
aI10001
aI10001
aI10001
aI181
aI194
aI184
aI10001
aI10001
aI180
aI10001
aI10001
aI179
aI10001
aI187
aI179
aI10001
aI10001
aI195
aI193
aI189
aI179
aI10001
aI204
aI10001
aI185
aI181
aI10001
aI10001
aI10001
aI10001
aI10001
aI10001
aI10001
aI180
aI180
aI10001
aI10001
aI10001
a.